ARM GAS  C:\Users\Kevin\AppData\Local\Temp\ccg63WcD.s 			page 1


   1              		.cpu cortex-m4
   2              		.arch armv7e-m
   3              		.fpu fpv4-sp-d16
   4              		.eabi_attribute 27, 1
   5              		.eabi_attribute 28, 1
   6              		.eabi_attribute 20, 1
   7              		.eabi_attribute 21, 1
   8              		.eabi_attribute 23, 3
   9              		.eabi_attribute 24, 1
  10              		.eabi_attribute 25, 1
  11              		.eabi_attribute 26, 1
  12              		.eabi_attribute 30, 1
  13              		.eabi_attribute 34, 1
  14              		.eabi_attribute 18, 4
  15              		.file	"stm32wbxx_hal_dma.c"
  16              		.text
  17              	.Ltext0:
  18              		.cfi_sections	.debug_frame
  19              		.file 1 "Drivers/STM32WBxx_HAL_Driver/Src/stm32wbxx_hal_dma.c"
  20              		.section	.text.DMA_SetConfig,"ax",%progbits
  21              		.align	1
  22              		.syntax unified
  23              		.thumb
  24              		.thumb_func
  26              	DMA_SetConfig:
  27              	.LVL0:
  28              	.LFB962:
   1:Drivers/STM32WBxx_HAL_Driver/Src/stm32wbxx_hal_dma.c **** /**
   2:Drivers/STM32WBxx_HAL_Driver/Src/stm32wbxx_hal_dma.c ****   ******************************************************************************
   3:Drivers/STM32WBxx_HAL_Driver/Src/stm32wbxx_hal_dma.c ****   * @file    stm32wbxx_hal_dma.c
   4:Drivers/STM32WBxx_HAL_Driver/Src/stm32wbxx_hal_dma.c ****   * @author  MCD Application Team
   5:Drivers/STM32WBxx_HAL_Driver/Src/stm32wbxx_hal_dma.c ****   * @brief   DMA HAL module driver.
   6:Drivers/STM32WBxx_HAL_Driver/Src/stm32wbxx_hal_dma.c ****   *         This file provides firmware functions to manage the following
   7:Drivers/STM32WBxx_HAL_Driver/Src/stm32wbxx_hal_dma.c ****   *         functionalities of the Direct Memory Access (DMA) peripheral:
   8:Drivers/STM32WBxx_HAL_Driver/Src/stm32wbxx_hal_dma.c ****   *           + Initialization and de-initialization functions
   9:Drivers/STM32WBxx_HAL_Driver/Src/stm32wbxx_hal_dma.c ****   *           + IO operation functions
  10:Drivers/STM32WBxx_HAL_Driver/Src/stm32wbxx_hal_dma.c ****   *           + Peripheral State and errors functions
  11:Drivers/STM32WBxx_HAL_Driver/Src/stm32wbxx_hal_dma.c ****   ******************************************************************************
  12:Drivers/STM32WBxx_HAL_Driver/Src/stm32wbxx_hal_dma.c ****   * @attention
  13:Drivers/STM32WBxx_HAL_Driver/Src/stm32wbxx_hal_dma.c ****   *
  14:Drivers/STM32WBxx_HAL_Driver/Src/stm32wbxx_hal_dma.c ****   * Copyright (c) 2019 STMicroelectronics.
  15:Drivers/STM32WBxx_HAL_Driver/Src/stm32wbxx_hal_dma.c ****   * All rights reserved.
  16:Drivers/STM32WBxx_HAL_Driver/Src/stm32wbxx_hal_dma.c ****   *
  17:Drivers/STM32WBxx_HAL_Driver/Src/stm32wbxx_hal_dma.c ****   * This software is licensed under terms that can be found in the LICENSE file
  18:Drivers/STM32WBxx_HAL_Driver/Src/stm32wbxx_hal_dma.c ****   * in the root directory of this software component.
  19:Drivers/STM32WBxx_HAL_Driver/Src/stm32wbxx_hal_dma.c ****   * If no LICENSE file comes with this software, it is provided AS-IS.
  20:Drivers/STM32WBxx_HAL_Driver/Src/stm32wbxx_hal_dma.c ****   *
  21:Drivers/STM32WBxx_HAL_Driver/Src/stm32wbxx_hal_dma.c ****   ******************************************************************************
  22:Drivers/STM32WBxx_HAL_Driver/Src/stm32wbxx_hal_dma.c ****   @verbatim
  23:Drivers/STM32WBxx_HAL_Driver/Src/stm32wbxx_hal_dma.c ****   ==============================================================================
  24:Drivers/STM32WBxx_HAL_Driver/Src/stm32wbxx_hal_dma.c ****                         ##### How to use this driver #####
  25:Drivers/STM32WBxx_HAL_Driver/Src/stm32wbxx_hal_dma.c ****   ==============================================================================
  26:Drivers/STM32WBxx_HAL_Driver/Src/stm32wbxx_hal_dma.c ****   [..]
  27:Drivers/STM32WBxx_HAL_Driver/Src/stm32wbxx_hal_dma.c ****    (#) Enable and configure the peripheral to be connected to the DMA Channel
  28:Drivers/STM32WBxx_HAL_Driver/Src/stm32wbxx_hal_dma.c ****        (except for internal SRAM / FLASH memories: no initialization is
  29:Drivers/STM32WBxx_HAL_Driver/Src/stm32wbxx_hal_dma.c ****        necessary). Please refer to the Reference manual for connection between peripherals
  30:Drivers/STM32WBxx_HAL_Driver/Src/stm32wbxx_hal_dma.c ****        and DMA requests.
ARM GAS  C:\Users\Kevin\AppData\Local\Temp\ccg63WcD.s 			page 2


  31:Drivers/STM32WBxx_HAL_Driver/Src/stm32wbxx_hal_dma.c **** 
  32:Drivers/STM32WBxx_HAL_Driver/Src/stm32wbxx_hal_dma.c ****    (#) For a given Channel, program the required configuration through the following parameters:
  33:Drivers/STM32WBxx_HAL_Driver/Src/stm32wbxx_hal_dma.c ****        Channel request, Transfer Direction, Source and Destination data formats,
  34:Drivers/STM32WBxx_HAL_Driver/Src/stm32wbxx_hal_dma.c ****        Circular or Normal mode, Channel Priority level, Source and Destination Increment mode
  35:Drivers/STM32WBxx_HAL_Driver/Src/stm32wbxx_hal_dma.c ****        using HAL_DMA_Init() function.
  36:Drivers/STM32WBxx_HAL_Driver/Src/stm32wbxx_hal_dma.c **** 
  37:Drivers/STM32WBxx_HAL_Driver/Src/stm32wbxx_hal_dma.c ****        Prior to HAL_DMA_Init the peripheral clock shall be enabled for both DMA & DMAMUX
  38:Drivers/STM32WBxx_HAL_Driver/Src/stm32wbxx_hal_dma.c ****        thanks to:
  39:Drivers/STM32WBxx_HAL_Driver/Src/stm32wbxx_hal_dma.c ****       (##) DMA1 or DMA2: __HAL_RCC_DMA1_CLK_ENABLE() or  __HAL_RCC_DMA2_CLK_ENABLE() ;
  40:Drivers/STM32WBxx_HAL_Driver/Src/stm32wbxx_hal_dma.c ****       (##) DMAMUX1:      __HAL_RCC_DMAMUX1_CLK_ENABLE();
  41:Drivers/STM32WBxx_HAL_Driver/Src/stm32wbxx_hal_dma.c **** 
  42:Drivers/STM32WBxx_HAL_Driver/Src/stm32wbxx_hal_dma.c ****    (#) Use HAL_DMA_GetState() function to return the DMA state and HAL_DMA_GetError() in case of er
  43:Drivers/STM32WBxx_HAL_Driver/Src/stm32wbxx_hal_dma.c ****        detection.
  44:Drivers/STM32WBxx_HAL_Driver/Src/stm32wbxx_hal_dma.c **** 
  45:Drivers/STM32WBxx_HAL_Driver/Src/stm32wbxx_hal_dma.c ****    (#) Use HAL_DMA_Abort() function to abort the current transfer
  46:Drivers/STM32WBxx_HAL_Driver/Src/stm32wbxx_hal_dma.c **** 
  47:Drivers/STM32WBxx_HAL_Driver/Src/stm32wbxx_hal_dma.c ****      -@-   In Memory-to-Memory transfer mode, Circular mode is not allowed.
  48:Drivers/STM32WBxx_HAL_Driver/Src/stm32wbxx_hal_dma.c **** 
  49:Drivers/STM32WBxx_HAL_Driver/Src/stm32wbxx_hal_dma.c ****      *** Polling mode IO operation ***
  50:Drivers/STM32WBxx_HAL_Driver/Src/stm32wbxx_hal_dma.c ****      =================================
  51:Drivers/STM32WBxx_HAL_Driver/Src/stm32wbxx_hal_dma.c ****     [..]
  52:Drivers/STM32WBxx_HAL_Driver/Src/stm32wbxx_hal_dma.c ****           (+) Use HAL_DMA_Start() to start DMA transfer after the configuration of Source
  53:Drivers/STM32WBxx_HAL_Driver/Src/stm32wbxx_hal_dma.c ****               address and destination address and the Length of data to be transferred
  54:Drivers/STM32WBxx_HAL_Driver/Src/stm32wbxx_hal_dma.c ****           (+) Use HAL_DMA_PollForTransfer() to poll for the end of current transfer, in this
  55:Drivers/STM32WBxx_HAL_Driver/Src/stm32wbxx_hal_dma.c ****               case a fixed Timeout can be configured by User depending from his application.
  56:Drivers/STM32WBxx_HAL_Driver/Src/stm32wbxx_hal_dma.c **** 
  57:Drivers/STM32WBxx_HAL_Driver/Src/stm32wbxx_hal_dma.c ****      *** Interrupt mode IO operation ***
  58:Drivers/STM32WBxx_HAL_Driver/Src/stm32wbxx_hal_dma.c ****      ===================================
  59:Drivers/STM32WBxx_HAL_Driver/Src/stm32wbxx_hal_dma.c ****     [..]
  60:Drivers/STM32WBxx_HAL_Driver/Src/stm32wbxx_hal_dma.c ****           (+) Configure the DMA interrupt priority using HAL_NVIC_SetPriority()
  61:Drivers/STM32WBxx_HAL_Driver/Src/stm32wbxx_hal_dma.c ****           (+) Enable the DMA IRQ handler using HAL_NVIC_EnableIRQ()
  62:Drivers/STM32WBxx_HAL_Driver/Src/stm32wbxx_hal_dma.c ****           (+) Use HAL_DMA_Start_IT() to start DMA transfer after the configuration of
  63:Drivers/STM32WBxx_HAL_Driver/Src/stm32wbxx_hal_dma.c ****               Source address and destination address and the Length of data to be transferred.
  64:Drivers/STM32WBxx_HAL_Driver/Src/stm32wbxx_hal_dma.c ****               In this case the DMA interrupt is configured
  65:Drivers/STM32WBxx_HAL_Driver/Src/stm32wbxx_hal_dma.c ****           (+) Use HAL_DMA_IRQHandler() called under DMA_IRQHandler() Interrupt subroutine
  66:Drivers/STM32WBxx_HAL_Driver/Src/stm32wbxx_hal_dma.c ****           (+) At the end of data transfer HAL_DMA_IRQHandler() function is executed and user can
  67:Drivers/STM32WBxx_HAL_Driver/Src/stm32wbxx_hal_dma.c ****               add his own function to register callbacks with HAL_DMA_RegisterCallback().
  68:Drivers/STM32WBxx_HAL_Driver/Src/stm32wbxx_hal_dma.c **** 
  69:Drivers/STM32WBxx_HAL_Driver/Src/stm32wbxx_hal_dma.c ****      *** DMA HAL driver macros list ***
  70:Drivers/STM32WBxx_HAL_Driver/Src/stm32wbxx_hal_dma.c ****      =============================================
  71:Drivers/STM32WBxx_HAL_Driver/Src/stm32wbxx_hal_dma.c ****       [..]
  72:Drivers/STM32WBxx_HAL_Driver/Src/stm32wbxx_hal_dma.c ****        Below the list of macros in DMA HAL driver.
  73:Drivers/STM32WBxx_HAL_Driver/Src/stm32wbxx_hal_dma.c **** 
  74:Drivers/STM32WBxx_HAL_Driver/Src/stm32wbxx_hal_dma.c ****        (+) __HAL_DMA_ENABLE: Enable the specified DMA Channel.
  75:Drivers/STM32WBxx_HAL_Driver/Src/stm32wbxx_hal_dma.c ****        (+) __HAL_DMA_DISABLE: Disable the specified DMA Channel.
  76:Drivers/STM32WBxx_HAL_Driver/Src/stm32wbxx_hal_dma.c ****        (+) __HAL_DMA_GET_FLAG: Get the DMA Channel pending flags.
  77:Drivers/STM32WBxx_HAL_Driver/Src/stm32wbxx_hal_dma.c ****        (+) __HAL_DMA_CLEAR_FLAG: Clear the DMA Channel pending flags.
  78:Drivers/STM32WBxx_HAL_Driver/Src/stm32wbxx_hal_dma.c ****        (+) __HAL_DMA_ENABLE_IT: Enable the specified DMA Channel interrupts.
  79:Drivers/STM32WBxx_HAL_Driver/Src/stm32wbxx_hal_dma.c ****        (+) __HAL_DMA_DISABLE_IT: Disable the specified DMA Channel interrupts.
  80:Drivers/STM32WBxx_HAL_Driver/Src/stm32wbxx_hal_dma.c ****        (+) __HAL_DMA_GET_IT_SOURCE: Check whether the specified DMA Channel interrupt is enabled or
  81:Drivers/STM32WBxx_HAL_Driver/Src/stm32wbxx_hal_dma.c **** 
  82:Drivers/STM32WBxx_HAL_Driver/Src/stm32wbxx_hal_dma.c ****      [..]
  83:Drivers/STM32WBxx_HAL_Driver/Src/stm32wbxx_hal_dma.c ****       (@) You can refer to the DMA HAL driver header file for more useful macros
  84:Drivers/STM32WBxx_HAL_Driver/Src/stm32wbxx_hal_dma.c **** 
  85:Drivers/STM32WBxx_HAL_Driver/Src/stm32wbxx_hal_dma.c ****   @endverbatim
  86:Drivers/STM32WBxx_HAL_Driver/Src/stm32wbxx_hal_dma.c ****   ******************************************************************************
  87:Drivers/STM32WBxx_HAL_Driver/Src/stm32wbxx_hal_dma.c ****   */
ARM GAS  C:\Users\Kevin\AppData\Local\Temp\ccg63WcD.s 			page 3


  88:Drivers/STM32WBxx_HAL_Driver/Src/stm32wbxx_hal_dma.c **** 
  89:Drivers/STM32WBxx_HAL_Driver/Src/stm32wbxx_hal_dma.c **** /* Includes ------------------------------------------------------------------*/
  90:Drivers/STM32WBxx_HAL_Driver/Src/stm32wbxx_hal_dma.c **** #include "stm32wbxx_hal.h"
  91:Drivers/STM32WBxx_HAL_Driver/Src/stm32wbxx_hal_dma.c **** 
  92:Drivers/STM32WBxx_HAL_Driver/Src/stm32wbxx_hal_dma.c **** /** @addtogroup STM32WBxx_HAL_Driver
  93:Drivers/STM32WBxx_HAL_Driver/Src/stm32wbxx_hal_dma.c ****   * @{
  94:Drivers/STM32WBxx_HAL_Driver/Src/stm32wbxx_hal_dma.c ****   */
  95:Drivers/STM32WBxx_HAL_Driver/Src/stm32wbxx_hal_dma.c **** 
  96:Drivers/STM32WBxx_HAL_Driver/Src/stm32wbxx_hal_dma.c **** /** @defgroup DMA DMA
  97:Drivers/STM32WBxx_HAL_Driver/Src/stm32wbxx_hal_dma.c ****   * @brief DMA HAL module driver
  98:Drivers/STM32WBxx_HAL_Driver/Src/stm32wbxx_hal_dma.c ****   * @{
  99:Drivers/STM32WBxx_HAL_Driver/Src/stm32wbxx_hal_dma.c ****   */
 100:Drivers/STM32WBxx_HAL_Driver/Src/stm32wbxx_hal_dma.c **** 
 101:Drivers/STM32WBxx_HAL_Driver/Src/stm32wbxx_hal_dma.c **** #ifdef HAL_DMA_MODULE_ENABLED
 102:Drivers/STM32WBxx_HAL_Driver/Src/stm32wbxx_hal_dma.c **** 
 103:Drivers/STM32WBxx_HAL_Driver/Src/stm32wbxx_hal_dma.c **** /* Private typedef -----------------------------------------------------------*/
 104:Drivers/STM32WBxx_HAL_Driver/Src/stm32wbxx_hal_dma.c **** /* Private define ------------------------------------------------------------*/
 105:Drivers/STM32WBxx_HAL_Driver/Src/stm32wbxx_hal_dma.c **** /* Private macro -------------------------------------------------------------*/
 106:Drivers/STM32WBxx_HAL_Driver/Src/stm32wbxx_hal_dma.c **** /* Private variables ---------------------------------------------------------*/
 107:Drivers/STM32WBxx_HAL_Driver/Src/stm32wbxx_hal_dma.c **** /* Private function prototypes -----------------------------------------------*/
 108:Drivers/STM32WBxx_HAL_Driver/Src/stm32wbxx_hal_dma.c **** /** @defgroup DMA_Private_Functions DMA Private Functions
 109:Drivers/STM32WBxx_HAL_Driver/Src/stm32wbxx_hal_dma.c ****   * @{
 110:Drivers/STM32WBxx_HAL_Driver/Src/stm32wbxx_hal_dma.c ****   */
 111:Drivers/STM32WBxx_HAL_Driver/Src/stm32wbxx_hal_dma.c **** static void DMA_SetConfig(DMA_HandleTypeDef *hdma, uint32_t SrcAddress, uint32_t DstAddress, uint32
 112:Drivers/STM32WBxx_HAL_Driver/Src/stm32wbxx_hal_dma.c **** static void DMA_CalcDMAMUXChannelBaseAndMask(DMA_HandleTypeDef *hdma);
 113:Drivers/STM32WBxx_HAL_Driver/Src/stm32wbxx_hal_dma.c **** static void DMA_CalcDMAMUXRequestGenBaseAndMask(DMA_HandleTypeDef *hdma);
 114:Drivers/STM32WBxx_HAL_Driver/Src/stm32wbxx_hal_dma.c **** 
 115:Drivers/STM32WBxx_HAL_Driver/Src/stm32wbxx_hal_dma.c **** /**
 116:Drivers/STM32WBxx_HAL_Driver/Src/stm32wbxx_hal_dma.c ****   * @}
 117:Drivers/STM32WBxx_HAL_Driver/Src/stm32wbxx_hal_dma.c ****   */
 118:Drivers/STM32WBxx_HAL_Driver/Src/stm32wbxx_hal_dma.c **** 
 119:Drivers/STM32WBxx_HAL_Driver/Src/stm32wbxx_hal_dma.c **** /* Exported functions ---------------------------------------------------------*/
 120:Drivers/STM32WBxx_HAL_Driver/Src/stm32wbxx_hal_dma.c **** 
 121:Drivers/STM32WBxx_HAL_Driver/Src/stm32wbxx_hal_dma.c **** /** @defgroup DMA_Exported_Functions DMA Exported Functions
 122:Drivers/STM32WBxx_HAL_Driver/Src/stm32wbxx_hal_dma.c ****   * @{
 123:Drivers/STM32WBxx_HAL_Driver/Src/stm32wbxx_hal_dma.c ****   */
 124:Drivers/STM32WBxx_HAL_Driver/Src/stm32wbxx_hal_dma.c **** 
 125:Drivers/STM32WBxx_HAL_Driver/Src/stm32wbxx_hal_dma.c **** /** @defgroup DMA_Exported_Functions_Group1 Initialization and de-initialization functions
 126:Drivers/STM32WBxx_HAL_Driver/Src/stm32wbxx_hal_dma.c ****   *  @brief   Initialization and de-initialization functions
 127:Drivers/STM32WBxx_HAL_Driver/Src/stm32wbxx_hal_dma.c ****   *
 128:Drivers/STM32WBxx_HAL_Driver/Src/stm32wbxx_hal_dma.c **** @verbatim
 129:Drivers/STM32WBxx_HAL_Driver/Src/stm32wbxx_hal_dma.c ****  ===============================================================================
 130:Drivers/STM32WBxx_HAL_Driver/Src/stm32wbxx_hal_dma.c ****              ##### Initialization and de-initialization functions  #####
 131:Drivers/STM32WBxx_HAL_Driver/Src/stm32wbxx_hal_dma.c ****  ===============================================================================
 132:Drivers/STM32WBxx_HAL_Driver/Src/stm32wbxx_hal_dma.c ****     [..]
 133:Drivers/STM32WBxx_HAL_Driver/Src/stm32wbxx_hal_dma.c ****     This section provides functions allowing to initialize the DMA Channel source
 134:Drivers/STM32WBxx_HAL_Driver/Src/stm32wbxx_hal_dma.c ****     and destination addresses, incrementation and data sizes, transfer direction,
 135:Drivers/STM32WBxx_HAL_Driver/Src/stm32wbxx_hal_dma.c ****     circular/normal mode selection, memory-to-memory mode selection and Channel priority value.
 136:Drivers/STM32WBxx_HAL_Driver/Src/stm32wbxx_hal_dma.c ****     [..]
 137:Drivers/STM32WBxx_HAL_Driver/Src/stm32wbxx_hal_dma.c ****     The HAL_DMA_Init() function follows the DMA configuration procedures as described in
 138:Drivers/STM32WBxx_HAL_Driver/Src/stm32wbxx_hal_dma.c ****     reference manual.
 139:Drivers/STM32WBxx_HAL_Driver/Src/stm32wbxx_hal_dma.c **** 
 140:Drivers/STM32WBxx_HAL_Driver/Src/stm32wbxx_hal_dma.c **** @endverbatim
 141:Drivers/STM32WBxx_HAL_Driver/Src/stm32wbxx_hal_dma.c ****   * @{
 142:Drivers/STM32WBxx_HAL_Driver/Src/stm32wbxx_hal_dma.c ****   */
 143:Drivers/STM32WBxx_HAL_Driver/Src/stm32wbxx_hal_dma.c **** 
 144:Drivers/STM32WBxx_HAL_Driver/Src/stm32wbxx_hal_dma.c **** /**
ARM GAS  C:\Users\Kevin\AppData\Local\Temp\ccg63WcD.s 			page 4


 145:Drivers/STM32WBxx_HAL_Driver/Src/stm32wbxx_hal_dma.c ****   * @brief  Initialize the DMA according to the specified
 146:Drivers/STM32WBxx_HAL_Driver/Src/stm32wbxx_hal_dma.c ****   *         parameters in the DMA_InitTypeDef and initialize the associated handle.
 147:Drivers/STM32WBxx_HAL_Driver/Src/stm32wbxx_hal_dma.c ****   * @param hdma Pointer to a DMA_HandleTypeDef structure that contains
 148:Drivers/STM32WBxx_HAL_Driver/Src/stm32wbxx_hal_dma.c ****   *               the configuration information for the specified DMA Channel.
 149:Drivers/STM32WBxx_HAL_Driver/Src/stm32wbxx_hal_dma.c ****   * @retval HAL status
 150:Drivers/STM32WBxx_HAL_Driver/Src/stm32wbxx_hal_dma.c ****   */
 151:Drivers/STM32WBxx_HAL_Driver/Src/stm32wbxx_hal_dma.c **** HAL_StatusTypeDef HAL_DMA_Init(DMA_HandleTypeDef *hdma)
 152:Drivers/STM32WBxx_HAL_Driver/Src/stm32wbxx_hal_dma.c **** {
 153:Drivers/STM32WBxx_HAL_Driver/Src/stm32wbxx_hal_dma.c ****   uint32_t tmp;
 154:Drivers/STM32WBxx_HAL_Driver/Src/stm32wbxx_hal_dma.c **** 
 155:Drivers/STM32WBxx_HAL_Driver/Src/stm32wbxx_hal_dma.c ****   /* Check the DMA handle allocation */
 156:Drivers/STM32WBxx_HAL_Driver/Src/stm32wbxx_hal_dma.c ****   if (hdma == NULL)
 157:Drivers/STM32WBxx_HAL_Driver/Src/stm32wbxx_hal_dma.c ****   {
 158:Drivers/STM32WBxx_HAL_Driver/Src/stm32wbxx_hal_dma.c ****     return HAL_ERROR;
 159:Drivers/STM32WBxx_HAL_Driver/Src/stm32wbxx_hal_dma.c ****   }
 160:Drivers/STM32WBxx_HAL_Driver/Src/stm32wbxx_hal_dma.c **** 
 161:Drivers/STM32WBxx_HAL_Driver/Src/stm32wbxx_hal_dma.c ****   /* Check the parameters */
 162:Drivers/STM32WBxx_HAL_Driver/Src/stm32wbxx_hal_dma.c ****   assert_param(IS_DMA_ALL_INSTANCE(hdma->Instance));
 163:Drivers/STM32WBxx_HAL_Driver/Src/stm32wbxx_hal_dma.c ****   assert_param(IS_DMA_DIRECTION(hdma->Init.Direction));
 164:Drivers/STM32WBxx_HAL_Driver/Src/stm32wbxx_hal_dma.c ****   assert_param(IS_DMA_PERIPHERAL_INC_STATE(hdma->Init.PeriphInc));
 165:Drivers/STM32WBxx_HAL_Driver/Src/stm32wbxx_hal_dma.c ****   assert_param(IS_DMA_MEMORY_INC_STATE(hdma->Init.MemInc));
 166:Drivers/STM32WBxx_HAL_Driver/Src/stm32wbxx_hal_dma.c ****   assert_param(IS_DMA_PERIPHERAL_DATA_SIZE(hdma->Init.PeriphDataAlignment));
 167:Drivers/STM32WBxx_HAL_Driver/Src/stm32wbxx_hal_dma.c ****   assert_param(IS_DMA_MEMORY_DATA_SIZE(hdma->Init.MemDataAlignment));
 168:Drivers/STM32WBxx_HAL_Driver/Src/stm32wbxx_hal_dma.c ****   assert_param(IS_DMA_MODE(hdma->Init.Mode));
 169:Drivers/STM32WBxx_HAL_Driver/Src/stm32wbxx_hal_dma.c ****   assert_param(IS_DMA_PRIORITY(hdma->Init.Priority));
 170:Drivers/STM32WBxx_HAL_Driver/Src/stm32wbxx_hal_dma.c **** 
 171:Drivers/STM32WBxx_HAL_Driver/Src/stm32wbxx_hal_dma.c ****   assert_param(IS_DMA_ALL_REQUEST(hdma->Init.Request));
 172:Drivers/STM32WBxx_HAL_Driver/Src/stm32wbxx_hal_dma.c **** 
 173:Drivers/STM32WBxx_HAL_Driver/Src/stm32wbxx_hal_dma.c **** #if defined(DMA2)
 174:Drivers/STM32WBxx_HAL_Driver/Src/stm32wbxx_hal_dma.c ****   /* Compute the channel index */
 175:Drivers/STM32WBxx_HAL_Driver/Src/stm32wbxx_hal_dma.c ****   if ((uint32_t)(hdma->Instance) < (uint32_t)(DMA2_Channel1))
 176:Drivers/STM32WBxx_HAL_Driver/Src/stm32wbxx_hal_dma.c ****   {
 177:Drivers/STM32WBxx_HAL_Driver/Src/stm32wbxx_hal_dma.c ****     /* DMA1 */
 178:Drivers/STM32WBxx_HAL_Driver/Src/stm32wbxx_hal_dma.c ****     hdma->ChannelIndex = (((uint32_t)hdma->Instance - (uint32_t)DMA1_Channel1) / ((uint32_t)DMA1_Ch
 179:Drivers/STM32WBxx_HAL_Driver/Src/stm32wbxx_hal_dma.c ****     hdma->DmaBaseAddress = DMA1;
 180:Drivers/STM32WBxx_HAL_Driver/Src/stm32wbxx_hal_dma.c ****   }
 181:Drivers/STM32WBxx_HAL_Driver/Src/stm32wbxx_hal_dma.c ****   else
 182:Drivers/STM32WBxx_HAL_Driver/Src/stm32wbxx_hal_dma.c ****   {
 183:Drivers/STM32WBxx_HAL_Driver/Src/stm32wbxx_hal_dma.c ****     /* DMA2 */
 184:Drivers/STM32WBxx_HAL_Driver/Src/stm32wbxx_hal_dma.c ****     hdma->ChannelIndex = (((uint32_t)hdma->Instance - (uint32_t)DMA2_Channel1) / ((uint32_t)DMA2_Ch
 185:Drivers/STM32WBxx_HAL_Driver/Src/stm32wbxx_hal_dma.c ****     hdma->DmaBaseAddress = DMA2;
 186:Drivers/STM32WBxx_HAL_Driver/Src/stm32wbxx_hal_dma.c ****   }
 187:Drivers/STM32WBxx_HAL_Driver/Src/stm32wbxx_hal_dma.c **** #else
 188:Drivers/STM32WBxx_HAL_Driver/Src/stm32wbxx_hal_dma.c ****   /* DMA1 */
 189:Drivers/STM32WBxx_HAL_Driver/Src/stm32wbxx_hal_dma.c ****   hdma->ChannelIndex = (((uint32_t)hdma->Instance - (uint32_t)DMA1_Channel1) / ((uint32_t)DMA1_Chan
 190:Drivers/STM32WBxx_HAL_Driver/Src/stm32wbxx_hal_dma.c ****   hdma->DmaBaseAddress = DMA1;
 191:Drivers/STM32WBxx_HAL_Driver/Src/stm32wbxx_hal_dma.c **** #endif /* DMA2 */
 192:Drivers/STM32WBxx_HAL_Driver/Src/stm32wbxx_hal_dma.c **** 
 193:Drivers/STM32WBxx_HAL_Driver/Src/stm32wbxx_hal_dma.c ****   /* Change DMA peripheral state */
 194:Drivers/STM32WBxx_HAL_Driver/Src/stm32wbxx_hal_dma.c ****   hdma->State = HAL_DMA_STATE_BUSY;
 195:Drivers/STM32WBxx_HAL_Driver/Src/stm32wbxx_hal_dma.c **** 
 196:Drivers/STM32WBxx_HAL_Driver/Src/stm32wbxx_hal_dma.c ****   /* Get the CR register value */
 197:Drivers/STM32WBxx_HAL_Driver/Src/stm32wbxx_hal_dma.c ****   tmp = hdma->Instance->CCR;
 198:Drivers/STM32WBxx_HAL_Driver/Src/stm32wbxx_hal_dma.c **** 
 199:Drivers/STM32WBxx_HAL_Driver/Src/stm32wbxx_hal_dma.c ****   /* Clear PL, MSIZE, PSIZE, MINC, PINC, CIRC, DIR and MEM2MEM bits */
 200:Drivers/STM32WBxx_HAL_Driver/Src/stm32wbxx_hal_dma.c ****   tmp &= ((uint32_t)~(DMA_CCR_PL    | DMA_CCR_MSIZE  | DMA_CCR_PSIZE  |
 201:Drivers/STM32WBxx_HAL_Driver/Src/stm32wbxx_hal_dma.c ****                       DMA_CCR_MINC  | DMA_CCR_PINC   | DMA_CCR_CIRC   |
ARM GAS  C:\Users\Kevin\AppData\Local\Temp\ccg63WcD.s 			page 5


 202:Drivers/STM32WBxx_HAL_Driver/Src/stm32wbxx_hal_dma.c ****                       DMA_CCR_DIR   | DMA_CCR_MEM2MEM));
 203:Drivers/STM32WBxx_HAL_Driver/Src/stm32wbxx_hal_dma.c **** 
 204:Drivers/STM32WBxx_HAL_Driver/Src/stm32wbxx_hal_dma.c ****   /* Prepare the DMA Channel configuration */
 205:Drivers/STM32WBxx_HAL_Driver/Src/stm32wbxx_hal_dma.c ****   tmp |=  hdma->Init.Direction        |
 206:Drivers/STM32WBxx_HAL_Driver/Src/stm32wbxx_hal_dma.c ****           hdma->Init.PeriphInc           | hdma->Init.MemInc           |
 207:Drivers/STM32WBxx_HAL_Driver/Src/stm32wbxx_hal_dma.c ****           hdma->Init.PeriphDataAlignment | hdma->Init.MemDataAlignment |
 208:Drivers/STM32WBxx_HAL_Driver/Src/stm32wbxx_hal_dma.c ****           hdma->Init.Mode                | hdma->Init.Priority;
 209:Drivers/STM32WBxx_HAL_Driver/Src/stm32wbxx_hal_dma.c **** 
 210:Drivers/STM32WBxx_HAL_Driver/Src/stm32wbxx_hal_dma.c ****   /* Write to DMA Channel CR register */
 211:Drivers/STM32WBxx_HAL_Driver/Src/stm32wbxx_hal_dma.c ****   hdma->Instance->CCR = tmp;
 212:Drivers/STM32WBxx_HAL_Driver/Src/stm32wbxx_hal_dma.c **** 
 213:Drivers/STM32WBxx_HAL_Driver/Src/stm32wbxx_hal_dma.c ****   /* Initialize parameters for DMAMUX channel :
 214:Drivers/STM32WBxx_HAL_Driver/Src/stm32wbxx_hal_dma.c ****      DMAmuxChannel, DMAmuxChannelStatus and DMAmuxChannelStatusMask
 215:Drivers/STM32WBxx_HAL_Driver/Src/stm32wbxx_hal_dma.c ****   */
 216:Drivers/STM32WBxx_HAL_Driver/Src/stm32wbxx_hal_dma.c ****   DMA_CalcDMAMUXChannelBaseAndMask(hdma);
 217:Drivers/STM32WBxx_HAL_Driver/Src/stm32wbxx_hal_dma.c **** 
 218:Drivers/STM32WBxx_HAL_Driver/Src/stm32wbxx_hal_dma.c ****   if (hdma->Init.Direction == DMA_MEMORY_TO_MEMORY)
 219:Drivers/STM32WBxx_HAL_Driver/Src/stm32wbxx_hal_dma.c ****   {
 220:Drivers/STM32WBxx_HAL_Driver/Src/stm32wbxx_hal_dma.c ****     /* if memory to memory force the request to 0*/
 221:Drivers/STM32WBxx_HAL_Driver/Src/stm32wbxx_hal_dma.c ****     hdma->Init.Request = DMA_REQUEST_MEM2MEM;
 222:Drivers/STM32WBxx_HAL_Driver/Src/stm32wbxx_hal_dma.c ****   }
 223:Drivers/STM32WBxx_HAL_Driver/Src/stm32wbxx_hal_dma.c **** 
 224:Drivers/STM32WBxx_HAL_Driver/Src/stm32wbxx_hal_dma.c ****   /* Set peripheral request  to DMAMUX channel */
 225:Drivers/STM32WBxx_HAL_Driver/Src/stm32wbxx_hal_dma.c ****   hdma->DMAmuxChannel->CCR = (hdma->Init.Request & DMAMUX_CxCR_DMAREQ_ID);
 226:Drivers/STM32WBxx_HAL_Driver/Src/stm32wbxx_hal_dma.c **** 
 227:Drivers/STM32WBxx_HAL_Driver/Src/stm32wbxx_hal_dma.c ****   /* Clear the DMAMUX synchro overrun flag */
 228:Drivers/STM32WBxx_HAL_Driver/Src/stm32wbxx_hal_dma.c ****   hdma->DMAmuxChannelStatus->CFR = hdma->DMAmuxChannelStatusMask;
 229:Drivers/STM32WBxx_HAL_Driver/Src/stm32wbxx_hal_dma.c **** 
 230:Drivers/STM32WBxx_HAL_Driver/Src/stm32wbxx_hal_dma.c ****   if (((hdma->Init.Request >  0U) && (hdma->Init.Request <= DMA_REQUEST_GENERATOR3)))
 231:Drivers/STM32WBxx_HAL_Driver/Src/stm32wbxx_hal_dma.c ****   {
 232:Drivers/STM32WBxx_HAL_Driver/Src/stm32wbxx_hal_dma.c ****     /* Initialize parameters for DMAMUX request generator :
 233:Drivers/STM32WBxx_HAL_Driver/Src/stm32wbxx_hal_dma.c ****        DMAmuxRequestGen, DMAmuxRequestGenStatus and DMAmuxRequestGenStatusMask
 234:Drivers/STM32WBxx_HAL_Driver/Src/stm32wbxx_hal_dma.c ****     */
 235:Drivers/STM32WBxx_HAL_Driver/Src/stm32wbxx_hal_dma.c ****     DMA_CalcDMAMUXRequestGenBaseAndMask(hdma);
 236:Drivers/STM32WBxx_HAL_Driver/Src/stm32wbxx_hal_dma.c **** 
 237:Drivers/STM32WBxx_HAL_Driver/Src/stm32wbxx_hal_dma.c ****     /* Reset the DMAMUX request generator register*/
 238:Drivers/STM32WBxx_HAL_Driver/Src/stm32wbxx_hal_dma.c ****     hdma->DMAmuxRequestGen->RGCR = 0U;
 239:Drivers/STM32WBxx_HAL_Driver/Src/stm32wbxx_hal_dma.c **** 
 240:Drivers/STM32WBxx_HAL_Driver/Src/stm32wbxx_hal_dma.c ****     /* Clear the DMAMUX request generator overrun flag */
 241:Drivers/STM32WBxx_HAL_Driver/Src/stm32wbxx_hal_dma.c ****     hdma->DMAmuxRequestGenStatus->RGCFR = hdma->DMAmuxRequestGenStatusMask;
 242:Drivers/STM32WBxx_HAL_Driver/Src/stm32wbxx_hal_dma.c ****   }
 243:Drivers/STM32WBxx_HAL_Driver/Src/stm32wbxx_hal_dma.c ****   else
 244:Drivers/STM32WBxx_HAL_Driver/Src/stm32wbxx_hal_dma.c ****   {
 245:Drivers/STM32WBxx_HAL_Driver/Src/stm32wbxx_hal_dma.c ****     hdma->DMAmuxRequestGen = 0U;
 246:Drivers/STM32WBxx_HAL_Driver/Src/stm32wbxx_hal_dma.c ****     hdma->DMAmuxRequestGenStatus = 0U;
 247:Drivers/STM32WBxx_HAL_Driver/Src/stm32wbxx_hal_dma.c ****     hdma->DMAmuxRequestGenStatusMask = 0U;
 248:Drivers/STM32WBxx_HAL_Driver/Src/stm32wbxx_hal_dma.c ****   }
 249:Drivers/STM32WBxx_HAL_Driver/Src/stm32wbxx_hal_dma.c **** 
 250:Drivers/STM32WBxx_HAL_Driver/Src/stm32wbxx_hal_dma.c ****   /* Initialize the error code */
 251:Drivers/STM32WBxx_HAL_Driver/Src/stm32wbxx_hal_dma.c ****   hdma->ErrorCode = HAL_DMA_ERROR_NONE;
 252:Drivers/STM32WBxx_HAL_Driver/Src/stm32wbxx_hal_dma.c **** 
 253:Drivers/STM32WBxx_HAL_Driver/Src/stm32wbxx_hal_dma.c ****   /* Initialize the DMA state*/
 254:Drivers/STM32WBxx_HAL_Driver/Src/stm32wbxx_hal_dma.c ****   hdma->State  = HAL_DMA_STATE_READY;
 255:Drivers/STM32WBxx_HAL_Driver/Src/stm32wbxx_hal_dma.c **** 
 256:Drivers/STM32WBxx_HAL_Driver/Src/stm32wbxx_hal_dma.c ****   /* Allocate lock resource and initialize it */
 257:Drivers/STM32WBxx_HAL_Driver/Src/stm32wbxx_hal_dma.c ****   hdma->Lock = HAL_UNLOCKED;
 258:Drivers/STM32WBxx_HAL_Driver/Src/stm32wbxx_hal_dma.c **** 
ARM GAS  C:\Users\Kevin\AppData\Local\Temp\ccg63WcD.s 			page 6


 259:Drivers/STM32WBxx_HAL_Driver/Src/stm32wbxx_hal_dma.c ****   return HAL_OK;
 260:Drivers/STM32WBxx_HAL_Driver/Src/stm32wbxx_hal_dma.c **** }
 261:Drivers/STM32WBxx_HAL_Driver/Src/stm32wbxx_hal_dma.c **** 
 262:Drivers/STM32WBxx_HAL_Driver/Src/stm32wbxx_hal_dma.c **** /**
 263:Drivers/STM32WBxx_HAL_Driver/Src/stm32wbxx_hal_dma.c ****   * @brief  DeInitialize the DMA peripheral.
 264:Drivers/STM32WBxx_HAL_Driver/Src/stm32wbxx_hal_dma.c ****   * @param hdma Pointer to a DMA_HandleTypeDef structure that contains
 265:Drivers/STM32WBxx_HAL_Driver/Src/stm32wbxx_hal_dma.c ****   *               the configuration information for the specified DMA Channel.
 266:Drivers/STM32WBxx_HAL_Driver/Src/stm32wbxx_hal_dma.c ****   * @retval HAL status
 267:Drivers/STM32WBxx_HAL_Driver/Src/stm32wbxx_hal_dma.c ****   */
 268:Drivers/STM32WBxx_HAL_Driver/Src/stm32wbxx_hal_dma.c **** HAL_StatusTypeDef HAL_DMA_DeInit(DMA_HandleTypeDef *hdma)
 269:Drivers/STM32WBxx_HAL_Driver/Src/stm32wbxx_hal_dma.c **** {
 270:Drivers/STM32WBxx_HAL_Driver/Src/stm32wbxx_hal_dma.c **** 
 271:Drivers/STM32WBxx_HAL_Driver/Src/stm32wbxx_hal_dma.c ****   /* Check the DMA handle allocation */
 272:Drivers/STM32WBxx_HAL_Driver/Src/stm32wbxx_hal_dma.c ****   if (NULL == hdma)
 273:Drivers/STM32WBxx_HAL_Driver/Src/stm32wbxx_hal_dma.c ****   {
 274:Drivers/STM32WBxx_HAL_Driver/Src/stm32wbxx_hal_dma.c ****     return HAL_ERROR;
 275:Drivers/STM32WBxx_HAL_Driver/Src/stm32wbxx_hal_dma.c ****   }
 276:Drivers/STM32WBxx_HAL_Driver/Src/stm32wbxx_hal_dma.c **** 
 277:Drivers/STM32WBxx_HAL_Driver/Src/stm32wbxx_hal_dma.c ****   /* Check the parameters */
 278:Drivers/STM32WBxx_HAL_Driver/Src/stm32wbxx_hal_dma.c ****   assert_param(IS_DMA_ALL_INSTANCE(hdma->Instance));
 279:Drivers/STM32WBxx_HAL_Driver/Src/stm32wbxx_hal_dma.c **** 
 280:Drivers/STM32WBxx_HAL_Driver/Src/stm32wbxx_hal_dma.c ****   /* Disable the selected DMA Channelx */
 281:Drivers/STM32WBxx_HAL_Driver/Src/stm32wbxx_hal_dma.c ****   __HAL_DMA_DISABLE(hdma);
 282:Drivers/STM32WBxx_HAL_Driver/Src/stm32wbxx_hal_dma.c **** 
 283:Drivers/STM32WBxx_HAL_Driver/Src/stm32wbxx_hal_dma.c **** #if defined(DMA2)
 284:Drivers/STM32WBxx_HAL_Driver/Src/stm32wbxx_hal_dma.c ****   /* Compute the channel index */
 285:Drivers/STM32WBxx_HAL_Driver/Src/stm32wbxx_hal_dma.c ****   if ((uint32_t)(hdma->Instance) < (uint32_t)(DMA2_Channel1))
 286:Drivers/STM32WBxx_HAL_Driver/Src/stm32wbxx_hal_dma.c ****   {
 287:Drivers/STM32WBxx_HAL_Driver/Src/stm32wbxx_hal_dma.c ****     /* DMA1 */
 288:Drivers/STM32WBxx_HAL_Driver/Src/stm32wbxx_hal_dma.c ****     hdma->ChannelIndex = (((uint32_t)hdma->Instance - (uint32_t)DMA1_Channel1) / ((uint32_t)DMA1_Ch
 289:Drivers/STM32WBxx_HAL_Driver/Src/stm32wbxx_hal_dma.c ****     hdma->DmaBaseAddress = DMA1;
 290:Drivers/STM32WBxx_HAL_Driver/Src/stm32wbxx_hal_dma.c ****   }
 291:Drivers/STM32WBxx_HAL_Driver/Src/stm32wbxx_hal_dma.c ****   else
 292:Drivers/STM32WBxx_HAL_Driver/Src/stm32wbxx_hal_dma.c ****   {
 293:Drivers/STM32WBxx_HAL_Driver/Src/stm32wbxx_hal_dma.c ****     /* DMA2 */
 294:Drivers/STM32WBxx_HAL_Driver/Src/stm32wbxx_hal_dma.c ****     hdma->ChannelIndex = (((uint32_t)hdma->Instance - (uint32_t)DMA2_Channel1) / ((uint32_t)DMA2_Ch
 295:Drivers/STM32WBxx_HAL_Driver/Src/stm32wbxx_hal_dma.c ****     hdma->DmaBaseAddress = DMA2;
 296:Drivers/STM32WBxx_HAL_Driver/Src/stm32wbxx_hal_dma.c ****   }
 297:Drivers/STM32WBxx_HAL_Driver/Src/stm32wbxx_hal_dma.c **** #else
 298:Drivers/STM32WBxx_HAL_Driver/Src/stm32wbxx_hal_dma.c ****   /* DMA1 */
 299:Drivers/STM32WBxx_HAL_Driver/Src/stm32wbxx_hal_dma.c ****   hdma->ChannelIndex = (((uint32_t)hdma->Instance - (uint32_t)DMA1_Channel1) / ((uint32_t)DMA1_Chan
 300:Drivers/STM32WBxx_HAL_Driver/Src/stm32wbxx_hal_dma.c ****   hdma->DmaBaseAddress = DMA1;
 301:Drivers/STM32WBxx_HAL_Driver/Src/stm32wbxx_hal_dma.c **** #endif /* DMA2 */
 302:Drivers/STM32WBxx_HAL_Driver/Src/stm32wbxx_hal_dma.c **** 
 303:Drivers/STM32WBxx_HAL_Driver/Src/stm32wbxx_hal_dma.c ****   /* Reset DMA Channel control register */
 304:Drivers/STM32WBxx_HAL_Driver/Src/stm32wbxx_hal_dma.c ****   hdma->Instance->CCR  = 0U;
 305:Drivers/STM32WBxx_HAL_Driver/Src/stm32wbxx_hal_dma.c **** 
 306:Drivers/STM32WBxx_HAL_Driver/Src/stm32wbxx_hal_dma.c ****   /* Clear all flags */
 307:Drivers/STM32WBxx_HAL_Driver/Src/stm32wbxx_hal_dma.c ****   hdma->DmaBaseAddress->IFCR = (DMA_ISR_GIF1 << (hdma->ChannelIndex & 0x1cU));
 308:Drivers/STM32WBxx_HAL_Driver/Src/stm32wbxx_hal_dma.c **** 
 309:Drivers/STM32WBxx_HAL_Driver/Src/stm32wbxx_hal_dma.c ****   /* Initialize parameters for DMAMUX channel :
 310:Drivers/STM32WBxx_HAL_Driver/Src/stm32wbxx_hal_dma.c ****      DMAmuxChannel, DMAmuxChannelStatus and DMAmuxChannelStatusMask */
 311:Drivers/STM32WBxx_HAL_Driver/Src/stm32wbxx_hal_dma.c **** 
 312:Drivers/STM32WBxx_HAL_Driver/Src/stm32wbxx_hal_dma.c ****   DMA_CalcDMAMUXChannelBaseAndMask(hdma);
 313:Drivers/STM32WBxx_HAL_Driver/Src/stm32wbxx_hal_dma.c **** 
 314:Drivers/STM32WBxx_HAL_Driver/Src/stm32wbxx_hal_dma.c ****   /* Reset the DMAMUX channel that corresponds to the DMA channel */
 315:Drivers/STM32WBxx_HAL_Driver/Src/stm32wbxx_hal_dma.c ****   hdma->DMAmuxChannel->CCR = 0U;
ARM GAS  C:\Users\Kevin\AppData\Local\Temp\ccg63WcD.s 			page 7


 316:Drivers/STM32WBxx_HAL_Driver/Src/stm32wbxx_hal_dma.c **** 
 317:Drivers/STM32WBxx_HAL_Driver/Src/stm32wbxx_hal_dma.c ****   /* Clear the DMAMUX synchro overrun flag */
 318:Drivers/STM32WBxx_HAL_Driver/Src/stm32wbxx_hal_dma.c ****   hdma->DMAmuxChannelStatus->CFR = hdma->DMAmuxChannelStatusMask;
 319:Drivers/STM32WBxx_HAL_Driver/Src/stm32wbxx_hal_dma.c **** 
 320:Drivers/STM32WBxx_HAL_Driver/Src/stm32wbxx_hal_dma.c ****   /* Reset Request generator parameters if any */
 321:Drivers/STM32WBxx_HAL_Driver/Src/stm32wbxx_hal_dma.c ****   if (((hdma->Init.Request >  0U) && (hdma->Init.Request <= DMA_REQUEST_GENERATOR3)))
 322:Drivers/STM32WBxx_HAL_Driver/Src/stm32wbxx_hal_dma.c ****   {
 323:Drivers/STM32WBxx_HAL_Driver/Src/stm32wbxx_hal_dma.c ****     /* Initialize parameters for DMAMUX request generator :
 324:Drivers/STM32WBxx_HAL_Driver/Src/stm32wbxx_hal_dma.c ****        DMAmuxRequestGen, DMAmuxRequestGenStatus and DMAmuxRequestGenStatusMask
 325:Drivers/STM32WBxx_HAL_Driver/Src/stm32wbxx_hal_dma.c ****     */
 326:Drivers/STM32WBxx_HAL_Driver/Src/stm32wbxx_hal_dma.c ****     DMA_CalcDMAMUXRequestGenBaseAndMask(hdma);
 327:Drivers/STM32WBxx_HAL_Driver/Src/stm32wbxx_hal_dma.c **** 
 328:Drivers/STM32WBxx_HAL_Driver/Src/stm32wbxx_hal_dma.c ****     /* Reset the DMAMUX request generator register*/
 329:Drivers/STM32WBxx_HAL_Driver/Src/stm32wbxx_hal_dma.c ****     hdma->DMAmuxRequestGen->RGCR = 0U;
 330:Drivers/STM32WBxx_HAL_Driver/Src/stm32wbxx_hal_dma.c **** 
 331:Drivers/STM32WBxx_HAL_Driver/Src/stm32wbxx_hal_dma.c ****     /* Clear the DMAMUX request generator overrun flag */
 332:Drivers/STM32WBxx_HAL_Driver/Src/stm32wbxx_hal_dma.c ****     hdma->DMAmuxRequestGenStatus->RGCFR = hdma->DMAmuxRequestGenStatusMask;
 333:Drivers/STM32WBxx_HAL_Driver/Src/stm32wbxx_hal_dma.c ****   }
 334:Drivers/STM32WBxx_HAL_Driver/Src/stm32wbxx_hal_dma.c **** 
 335:Drivers/STM32WBxx_HAL_Driver/Src/stm32wbxx_hal_dma.c ****   hdma->DMAmuxRequestGen = 0U;
 336:Drivers/STM32WBxx_HAL_Driver/Src/stm32wbxx_hal_dma.c ****   hdma->DMAmuxRequestGenStatus = 0U;
 337:Drivers/STM32WBxx_HAL_Driver/Src/stm32wbxx_hal_dma.c ****   hdma->DMAmuxRequestGenStatusMask = 0U;
 338:Drivers/STM32WBxx_HAL_Driver/Src/stm32wbxx_hal_dma.c **** 
 339:Drivers/STM32WBxx_HAL_Driver/Src/stm32wbxx_hal_dma.c ****   /* Clean callbacks */
 340:Drivers/STM32WBxx_HAL_Driver/Src/stm32wbxx_hal_dma.c ****   hdma->XferCpltCallback = NULL;
 341:Drivers/STM32WBxx_HAL_Driver/Src/stm32wbxx_hal_dma.c ****   hdma->XferHalfCpltCallback = NULL;
 342:Drivers/STM32WBxx_HAL_Driver/Src/stm32wbxx_hal_dma.c ****   hdma->XferErrorCallback = NULL;
 343:Drivers/STM32WBxx_HAL_Driver/Src/stm32wbxx_hal_dma.c ****   hdma->XferAbortCallback = NULL;
 344:Drivers/STM32WBxx_HAL_Driver/Src/stm32wbxx_hal_dma.c **** 
 345:Drivers/STM32WBxx_HAL_Driver/Src/stm32wbxx_hal_dma.c ****   /* Initialize the error code */
 346:Drivers/STM32WBxx_HAL_Driver/Src/stm32wbxx_hal_dma.c ****   hdma->ErrorCode = HAL_DMA_ERROR_NONE;
 347:Drivers/STM32WBxx_HAL_Driver/Src/stm32wbxx_hal_dma.c **** 
 348:Drivers/STM32WBxx_HAL_Driver/Src/stm32wbxx_hal_dma.c ****   /* Initialize the DMA state */
 349:Drivers/STM32WBxx_HAL_Driver/Src/stm32wbxx_hal_dma.c ****   hdma->State = HAL_DMA_STATE_RESET;
 350:Drivers/STM32WBxx_HAL_Driver/Src/stm32wbxx_hal_dma.c **** 
 351:Drivers/STM32WBxx_HAL_Driver/Src/stm32wbxx_hal_dma.c ****   /* Release Lock */
 352:Drivers/STM32WBxx_HAL_Driver/Src/stm32wbxx_hal_dma.c ****   __HAL_UNLOCK(hdma);
 353:Drivers/STM32WBxx_HAL_Driver/Src/stm32wbxx_hal_dma.c **** 
 354:Drivers/STM32WBxx_HAL_Driver/Src/stm32wbxx_hal_dma.c ****   return HAL_OK;
 355:Drivers/STM32WBxx_HAL_Driver/Src/stm32wbxx_hal_dma.c **** }
 356:Drivers/STM32WBxx_HAL_Driver/Src/stm32wbxx_hal_dma.c **** 
 357:Drivers/STM32WBxx_HAL_Driver/Src/stm32wbxx_hal_dma.c **** /**
 358:Drivers/STM32WBxx_HAL_Driver/Src/stm32wbxx_hal_dma.c ****   * @}
 359:Drivers/STM32WBxx_HAL_Driver/Src/stm32wbxx_hal_dma.c ****   */
 360:Drivers/STM32WBxx_HAL_Driver/Src/stm32wbxx_hal_dma.c **** 
 361:Drivers/STM32WBxx_HAL_Driver/Src/stm32wbxx_hal_dma.c **** /** @defgroup DMA_Exported_Functions_Group2 Input and Output operation functions
 362:Drivers/STM32WBxx_HAL_Driver/Src/stm32wbxx_hal_dma.c ****   *  @brief   Input and Output operation functions
 363:Drivers/STM32WBxx_HAL_Driver/Src/stm32wbxx_hal_dma.c ****   *
 364:Drivers/STM32WBxx_HAL_Driver/Src/stm32wbxx_hal_dma.c **** @verbatim
 365:Drivers/STM32WBxx_HAL_Driver/Src/stm32wbxx_hal_dma.c ****  ===============================================================================
 366:Drivers/STM32WBxx_HAL_Driver/Src/stm32wbxx_hal_dma.c ****                       #####  IO operation functions  #####
 367:Drivers/STM32WBxx_HAL_Driver/Src/stm32wbxx_hal_dma.c ****  ===============================================================================
 368:Drivers/STM32WBxx_HAL_Driver/Src/stm32wbxx_hal_dma.c ****     [..]  This section provides functions allowing to:
 369:Drivers/STM32WBxx_HAL_Driver/Src/stm32wbxx_hal_dma.c ****       (+) Configure the source, destination address and data length and Start DMA transfer
 370:Drivers/STM32WBxx_HAL_Driver/Src/stm32wbxx_hal_dma.c ****       (+) Configure the source, destination address and data length and
 371:Drivers/STM32WBxx_HAL_Driver/Src/stm32wbxx_hal_dma.c ****           Start DMA transfer with interrupt
 372:Drivers/STM32WBxx_HAL_Driver/Src/stm32wbxx_hal_dma.c ****       (+) Abort DMA transfer
ARM GAS  C:\Users\Kevin\AppData\Local\Temp\ccg63WcD.s 			page 8


 373:Drivers/STM32WBxx_HAL_Driver/Src/stm32wbxx_hal_dma.c ****       (+) Poll for transfer complete
 374:Drivers/STM32WBxx_HAL_Driver/Src/stm32wbxx_hal_dma.c ****       (+) Handle DMA interrupt request
 375:Drivers/STM32WBxx_HAL_Driver/Src/stm32wbxx_hal_dma.c **** 
 376:Drivers/STM32WBxx_HAL_Driver/Src/stm32wbxx_hal_dma.c **** @endverbatim
 377:Drivers/STM32WBxx_HAL_Driver/Src/stm32wbxx_hal_dma.c ****   * @{
 378:Drivers/STM32WBxx_HAL_Driver/Src/stm32wbxx_hal_dma.c ****   */
 379:Drivers/STM32WBxx_HAL_Driver/Src/stm32wbxx_hal_dma.c **** 
 380:Drivers/STM32WBxx_HAL_Driver/Src/stm32wbxx_hal_dma.c **** /**
 381:Drivers/STM32WBxx_HAL_Driver/Src/stm32wbxx_hal_dma.c ****   * @brief  Start the DMA Transfer.
 382:Drivers/STM32WBxx_HAL_Driver/Src/stm32wbxx_hal_dma.c ****   * @param hdma Pointer to a DMA_HandleTypeDef structure that contains
 383:Drivers/STM32WBxx_HAL_Driver/Src/stm32wbxx_hal_dma.c ****   *               the configuration information for the specified DMA Channel.
 384:Drivers/STM32WBxx_HAL_Driver/Src/stm32wbxx_hal_dma.c ****   * @param SrcAddress The source memory Buffer address
 385:Drivers/STM32WBxx_HAL_Driver/Src/stm32wbxx_hal_dma.c ****   * @param DstAddress The destination memory Buffer address
 386:Drivers/STM32WBxx_HAL_Driver/Src/stm32wbxx_hal_dma.c ****   * @param DataLength The length of data to be transferred from source to destination
 387:Drivers/STM32WBxx_HAL_Driver/Src/stm32wbxx_hal_dma.c ****   * @retval HAL status
 388:Drivers/STM32WBxx_HAL_Driver/Src/stm32wbxx_hal_dma.c ****   */
 389:Drivers/STM32WBxx_HAL_Driver/Src/stm32wbxx_hal_dma.c **** HAL_StatusTypeDef HAL_DMA_Start(DMA_HandleTypeDef *hdma, uint32_t SrcAddress, uint32_t DstAddress, 
 390:Drivers/STM32WBxx_HAL_Driver/Src/stm32wbxx_hal_dma.c **** {
 391:Drivers/STM32WBxx_HAL_Driver/Src/stm32wbxx_hal_dma.c ****   HAL_StatusTypeDef status = HAL_OK;
 392:Drivers/STM32WBxx_HAL_Driver/Src/stm32wbxx_hal_dma.c **** 
 393:Drivers/STM32WBxx_HAL_Driver/Src/stm32wbxx_hal_dma.c ****   /* Check the parameters */
 394:Drivers/STM32WBxx_HAL_Driver/Src/stm32wbxx_hal_dma.c ****   assert_param(IS_DMA_BUFFER_SIZE(DataLength));
 395:Drivers/STM32WBxx_HAL_Driver/Src/stm32wbxx_hal_dma.c **** 
 396:Drivers/STM32WBxx_HAL_Driver/Src/stm32wbxx_hal_dma.c ****   /* Process locked */
 397:Drivers/STM32WBxx_HAL_Driver/Src/stm32wbxx_hal_dma.c ****   __HAL_LOCK(hdma);
 398:Drivers/STM32WBxx_HAL_Driver/Src/stm32wbxx_hal_dma.c **** 
 399:Drivers/STM32WBxx_HAL_Driver/Src/stm32wbxx_hal_dma.c ****   if (HAL_DMA_STATE_READY == hdma->State)
 400:Drivers/STM32WBxx_HAL_Driver/Src/stm32wbxx_hal_dma.c ****   {
 401:Drivers/STM32WBxx_HAL_Driver/Src/stm32wbxx_hal_dma.c ****     /* Change DMA peripheral state */
 402:Drivers/STM32WBxx_HAL_Driver/Src/stm32wbxx_hal_dma.c ****     hdma->State = HAL_DMA_STATE_BUSY;
 403:Drivers/STM32WBxx_HAL_Driver/Src/stm32wbxx_hal_dma.c ****     hdma->ErrorCode = HAL_DMA_ERROR_NONE;
 404:Drivers/STM32WBxx_HAL_Driver/Src/stm32wbxx_hal_dma.c **** 
 405:Drivers/STM32WBxx_HAL_Driver/Src/stm32wbxx_hal_dma.c ****     /* Disable the peripheral */
 406:Drivers/STM32WBxx_HAL_Driver/Src/stm32wbxx_hal_dma.c ****     __HAL_DMA_DISABLE(hdma);
 407:Drivers/STM32WBxx_HAL_Driver/Src/stm32wbxx_hal_dma.c **** 
 408:Drivers/STM32WBxx_HAL_Driver/Src/stm32wbxx_hal_dma.c ****     /* Configure the source, destination address and the data length & clear flags*/
 409:Drivers/STM32WBxx_HAL_Driver/Src/stm32wbxx_hal_dma.c ****     DMA_SetConfig(hdma, SrcAddress, DstAddress, DataLength);
 410:Drivers/STM32WBxx_HAL_Driver/Src/stm32wbxx_hal_dma.c **** 
 411:Drivers/STM32WBxx_HAL_Driver/Src/stm32wbxx_hal_dma.c ****     /* Enable the Peripheral */
 412:Drivers/STM32WBxx_HAL_Driver/Src/stm32wbxx_hal_dma.c ****     __HAL_DMA_ENABLE(hdma);
 413:Drivers/STM32WBxx_HAL_Driver/Src/stm32wbxx_hal_dma.c ****   }
 414:Drivers/STM32WBxx_HAL_Driver/Src/stm32wbxx_hal_dma.c ****   else
 415:Drivers/STM32WBxx_HAL_Driver/Src/stm32wbxx_hal_dma.c ****   {
 416:Drivers/STM32WBxx_HAL_Driver/Src/stm32wbxx_hal_dma.c ****     /* Process Unlocked */
 417:Drivers/STM32WBxx_HAL_Driver/Src/stm32wbxx_hal_dma.c ****     __HAL_UNLOCK(hdma);
 418:Drivers/STM32WBxx_HAL_Driver/Src/stm32wbxx_hal_dma.c ****     status = HAL_BUSY;
 419:Drivers/STM32WBxx_HAL_Driver/Src/stm32wbxx_hal_dma.c ****   }
 420:Drivers/STM32WBxx_HAL_Driver/Src/stm32wbxx_hal_dma.c ****   return status;
 421:Drivers/STM32WBxx_HAL_Driver/Src/stm32wbxx_hal_dma.c **** }
 422:Drivers/STM32WBxx_HAL_Driver/Src/stm32wbxx_hal_dma.c **** 
 423:Drivers/STM32WBxx_HAL_Driver/Src/stm32wbxx_hal_dma.c **** /**
 424:Drivers/STM32WBxx_HAL_Driver/Src/stm32wbxx_hal_dma.c ****   * @brief  Start the DMA Transfer with interrupt enabled.
 425:Drivers/STM32WBxx_HAL_Driver/Src/stm32wbxx_hal_dma.c ****   * @param hdma Pointer to a DMA_HandleTypeDef structure that contains
 426:Drivers/STM32WBxx_HAL_Driver/Src/stm32wbxx_hal_dma.c ****   *               the configuration information for the specified DMA Channel.
 427:Drivers/STM32WBxx_HAL_Driver/Src/stm32wbxx_hal_dma.c ****   * @param SrcAddress The source memory Buffer address
 428:Drivers/STM32WBxx_HAL_Driver/Src/stm32wbxx_hal_dma.c ****   * @param DstAddress The destination memory Buffer address
 429:Drivers/STM32WBxx_HAL_Driver/Src/stm32wbxx_hal_dma.c ****   * @param DataLength The length of data to be transferred from source to destination
ARM GAS  C:\Users\Kevin\AppData\Local\Temp\ccg63WcD.s 			page 9


 430:Drivers/STM32WBxx_HAL_Driver/Src/stm32wbxx_hal_dma.c ****   * @retval HAL status
 431:Drivers/STM32WBxx_HAL_Driver/Src/stm32wbxx_hal_dma.c ****   */
 432:Drivers/STM32WBxx_HAL_Driver/Src/stm32wbxx_hal_dma.c **** HAL_StatusTypeDef HAL_DMA_Start_IT(DMA_HandleTypeDef *hdma, uint32_t SrcAddress, uint32_t DstAddres
 433:Drivers/STM32WBxx_HAL_Driver/Src/stm32wbxx_hal_dma.c ****                                    uint32_t DataLength)
 434:Drivers/STM32WBxx_HAL_Driver/Src/stm32wbxx_hal_dma.c **** {
 435:Drivers/STM32WBxx_HAL_Driver/Src/stm32wbxx_hal_dma.c ****   HAL_StatusTypeDef status = HAL_OK;
 436:Drivers/STM32WBxx_HAL_Driver/Src/stm32wbxx_hal_dma.c **** 
 437:Drivers/STM32WBxx_HAL_Driver/Src/stm32wbxx_hal_dma.c ****   /* Check the parameters */
 438:Drivers/STM32WBxx_HAL_Driver/Src/stm32wbxx_hal_dma.c ****   assert_param(IS_DMA_BUFFER_SIZE(DataLength));
 439:Drivers/STM32WBxx_HAL_Driver/Src/stm32wbxx_hal_dma.c **** 
 440:Drivers/STM32WBxx_HAL_Driver/Src/stm32wbxx_hal_dma.c ****   /* Process locked */
 441:Drivers/STM32WBxx_HAL_Driver/Src/stm32wbxx_hal_dma.c ****   __HAL_LOCK(hdma);
 442:Drivers/STM32WBxx_HAL_Driver/Src/stm32wbxx_hal_dma.c **** 
 443:Drivers/STM32WBxx_HAL_Driver/Src/stm32wbxx_hal_dma.c ****   if (HAL_DMA_STATE_READY == hdma->State)
 444:Drivers/STM32WBxx_HAL_Driver/Src/stm32wbxx_hal_dma.c ****   {
 445:Drivers/STM32WBxx_HAL_Driver/Src/stm32wbxx_hal_dma.c ****     /* Change DMA peripheral state */
 446:Drivers/STM32WBxx_HAL_Driver/Src/stm32wbxx_hal_dma.c ****     hdma->State = HAL_DMA_STATE_BUSY;
 447:Drivers/STM32WBxx_HAL_Driver/Src/stm32wbxx_hal_dma.c ****     hdma->ErrorCode = HAL_DMA_ERROR_NONE;
 448:Drivers/STM32WBxx_HAL_Driver/Src/stm32wbxx_hal_dma.c **** 
 449:Drivers/STM32WBxx_HAL_Driver/Src/stm32wbxx_hal_dma.c ****     /* Disable the peripheral */
 450:Drivers/STM32WBxx_HAL_Driver/Src/stm32wbxx_hal_dma.c ****     __HAL_DMA_DISABLE(hdma);
 451:Drivers/STM32WBxx_HAL_Driver/Src/stm32wbxx_hal_dma.c **** 
 452:Drivers/STM32WBxx_HAL_Driver/Src/stm32wbxx_hal_dma.c ****     /* Configure the source, destination address and the data length & clear flags*/
 453:Drivers/STM32WBxx_HAL_Driver/Src/stm32wbxx_hal_dma.c ****     DMA_SetConfig(hdma, SrcAddress, DstAddress, DataLength);
 454:Drivers/STM32WBxx_HAL_Driver/Src/stm32wbxx_hal_dma.c **** 
 455:Drivers/STM32WBxx_HAL_Driver/Src/stm32wbxx_hal_dma.c ****     /* Enable the transfer complete interrupt */
 456:Drivers/STM32WBxx_HAL_Driver/Src/stm32wbxx_hal_dma.c ****     /* Enable the transfer Error interrupt */
 457:Drivers/STM32WBxx_HAL_Driver/Src/stm32wbxx_hal_dma.c ****     if (NULL != hdma->XferHalfCpltCallback)
 458:Drivers/STM32WBxx_HAL_Driver/Src/stm32wbxx_hal_dma.c ****     {
 459:Drivers/STM32WBxx_HAL_Driver/Src/stm32wbxx_hal_dma.c ****       /* Enable the Half transfer complete interrupt as well */
 460:Drivers/STM32WBxx_HAL_Driver/Src/stm32wbxx_hal_dma.c ****       __HAL_DMA_ENABLE_IT(hdma, (DMA_IT_TC | DMA_IT_HT | DMA_IT_TE));
 461:Drivers/STM32WBxx_HAL_Driver/Src/stm32wbxx_hal_dma.c ****     }
 462:Drivers/STM32WBxx_HAL_Driver/Src/stm32wbxx_hal_dma.c ****     else
 463:Drivers/STM32WBxx_HAL_Driver/Src/stm32wbxx_hal_dma.c ****     {
 464:Drivers/STM32WBxx_HAL_Driver/Src/stm32wbxx_hal_dma.c ****       __HAL_DMA_DISABLE_IT(hdma, DMA_IT_HT);
 465:Drivers/STM32WBxx_HAL_Driver/Src/stm32wbxx_hal_dma.c ****       __HAL_DMA_ENABLE_IT(hdma, (DMA_IT_TC | DMA_IT_TE));
 466:Drivers/STM32WBxx_HAL_Driver/Src/stm32wbxx_hal_dma.c ****     }
 467:Drivers/STM32WBxx_HAL_Driver/Src/stm32wbxx_hal_dma.c **** 
 468:Drivers/STM32WBxx_HAL_Driver/Src/stm32wbxx_hal_dma.c ****     /* Check if DMAMUX Synchronization is enabled*/
 469:Drivers/STM32WBxx_HAL_Driver/Src/stm32wbxx_hal_dma.c ****     if ((hdma->DMAmuxChannel->CCR & DMAMUX_CxCR_SE) != 0U)
 470:Drivers/STM32WBxx_HAL_Driver/Src/stm32wbxx_hal_dma.c ****     {
 471:Drivers/STM32WBxx_HAL_Driver/Src/stm32wbxx_hal_dma.c ****       /* Enable DMAMUX sync overrun IT*/
 472:Drivers/STM32WBxx_HAL_Driver/Src/stm32wbxx_hal_dma.c ****       hdma->DMAmuxChannel->CCR |= DMAMUX_CxCR_SOIE;
 473:Drivers/STM32WBxx_HAL_Driver/Src/stm32wbxx_hal_dma.c ****     }
 474:Drivers/STM32WBxx_HAL_Driver/Src/stm32wbxx_hal_dma.c **** 
 475:Drivers/STM32WBxx_HAL_Driver/Src/stm32wbxx_hal_dma.c ****     if (hdma->DMAmuxRequestGen != 0U)
 476:Drivers/STM32WBxx_HAL_Driver/Src/stm32wbxx_hal_dma.c ****     {
 477:Drivers/STM32WBxx_HAL_Driver/Src/stm32wbxx_hal_dma.c ****       /* if using DMAMUX request generator, enable the DMAMUX request generator overrun IT*/
 478:Drivers/STM32WBxx_HAL_Driver/Src/stm32wbxx_hal_dma.c ****       /* enable the request gen overrun IT*/
 479:Drivers/STM32WBxx_HAL_Driver/Src/stm32wbxx_hal_dma.c ****       hdma->DMAmuxRequestGen->RGCR |= DMAMUX_RGxCR_OIE;
 480:Drivers/STM32WBxx_HAL_Driver/Src/stm32wbxx_hal_dma.c ****     }
 481:Drivers/STM32WBxx_HAL_Driver/Src/stm32wbxx_hal_dma.c **** 
 482:Drivers/STM32WBxx_HAL_Driver/Src/stm32wbxx_hal_dma.c ****     /* Enable the Peripheral */
 483:Drivers/STM32WBxx_HAL_Driver/Src/stm32wbxx_hal_dma.c ****     __HAL_DMA_ENABLE(hdma);
 484:Drivers/STM32WBxx_HAL_Driver/Src/stm32wbxx_hal_dma.c ****   }
 485:Drivers/STM32WBxx_HAL_Driver/Src/stm32wbxx_hal_dma.c ****   else
 486:Drivers/STM32WBxx_HAL_Driver/Src/stm32wbxx_hal_dma.c ****   {
ARM GAS  C:\Users\Kevin\AppData\Local\Temp\ccg63WcD.s 			page 10


 487:Drivers/STM32WBxx_HAL_Driver/Src/stm32wbxx_hal_dma.c ****     /* Process Unlocked */
 488:Drivers/STM32WBxx_HAL_Driver/Src/stm32wbxx_hal_dma.c ****     __HAL_UNLOCK(hdma);
 489:Drivers/STM32WBxx_HAL_Driver/Src/stm32wbxx_hal_dma.c **** 
 490:Drivers/STM32WBxx_HAL_Driver/Src/stm32wbxx_hal_dma.c ****     /* Remain BUSY */
 491:Drivers/STM32WBxx_HAL_Driver/Src/stm32wbxx_hal_dma.c ****     status = HAL_BUSY;
 492:Drivers/STM32WBxx_HAL_Driver/Src/stm32wbxx_hal_dma.c ****   }
 493:Drivers/STM32WBxx_HAL_Driver/Src/stm32wbxx_hal_dma.c ****   return status;
 494:Drivers/STM32WBxx_HAL_Driver/Src/stm32wbxx_hal_dma.c **** }
 495:Drivers/STM32WBxx_HAL_Driver/Src/stm32wbxx_hal_dma.c **** 
 496:Drivers/STM32WBxx_HAL_Driver/Src/stm32wbxx_hal_dma.c **** /**
 497:Drivers/STM32WBxx_HAL_Driver/Src/stm32wbxx_hal_dma.c ****   * @brief  Abort the DMA Transfer.
 498:Drivers/STM32WBxx_HAL_Driver/Src/stm32wbxx_hal_dma.c ****   * @param hdma Pointer to a DMA_HandleTypeDef structure that contains
 499:Drivers/STM32WBxx_HAL_Driver/Src/stm32wbxx_hal_dma.c ****   *               the configuration information for the specified DMA Channel.
 500:Drivers/STM32WBxx_HAL_Driver/Src/stm32wbxx_hal_dma.c ****     * @retval HAL status
 501:Drivers/STM32WBxx_HAL_Driver/Src/stm32wbxx_hal_dma.c ****   */
 502:Drivers/STM32WBxx_HAL_Driver/Src/stm32wbxx_hal_dma.c **** HAL_StatusTypeDef HAL_DMA_Abort(DMA_HandleTypeDef *hdma)
 503:Drivers/STM32WBxx_HAL_Driver/Src/stm32wbxx_hal_dma.c **** {
 504:Drivers/STM32WBxx_HAL_Driver/Src/stm32wbxx_hal_dma.c **** 
 505:Drivers/STM32WBxx_HAL_Driver/Src/stm32wbxx_hal_dma.c ****   /* Check the DMA peripheral handle */
 506:Drivers/STM32WBxx_HAL_Driver/Src/stm32wbxx_hal_dma.c ****   if (NULL == hdma)
 507:Drivers/STM32WBxx_HAL_Driver/Src/stm32wbxx_hal_dma.c ****   {
 508:Drivers/STM32WBxx_HAL_Driver/Src/stm32wbxx_hal_dma.c ****     return HAL_ERROR;
 509:Drivers/STM32WBxx_HAL_Driver/Src/stm32wbxx_hal_dma.c ****   }
 510:Drivers/STM32WBxx_HAL_Driver/Src/stm32wbxx_hal_dma.c **** 
 511:Drivers/STM32WBxx_HAL_Driver/Src/stm32wbxx_hal_dma.c ****   /* Check the DMA peripheral state */
 512:Drivers/STM32WBxx_HAL_Driver/Src/stm32wbxx_hal_dma.c ****   if (hdma->State != HAL_DMA_STATE_BUSY)
 513:Drivers/STM32WBxx_HAL_Driver/Src/stm32wbxx_hal_dma.c ****   {
 514:Drivers/STM32WBxx_HAL_Driver/Src/stm32wbxx_hal_dma.c ****     hdma->ErrorCode = HAL_DMA_ERROR_NO_XFER;
 515:Drivers/STM32WBxx_HAL_Driver/Src/stm32wbxx_hal_dma.c **** 
 516:Drivers/STM32WBxx_HAL_Driver/Src/stm32wbxx_hal_dma.c ****     /* Process Unlocked */
 517:Drivers/STM32WBxx_HAL_Driver/Src/stm32wbxx_hal_dma.c ****     __HAL_UNLOCK(hdma);
 518:Drivers/STM32WBxx_HAL_Driver/Src/stm32wbxx_hal_dma.c **** 
 519:Drivers/STM32WBxx_HAL_Driver/Src/stm32wbxx_hal_dma.c ****     return HAL_ERROR;
 520:Drivers/STM32WBxx_HAL_Driver/Src/stm32wbxx_hal_dma.c ****   }
 521:Drivers/STM32WBxx_HAL_Driver/Src/stm32wbxx_hal_dma.c ****   else
 522:Drivers/STM32WBxx_HAL_Driver/Src/stm32wbxx_hal_dma.c ****   {
 523:Drivers/STM32WBxx_HAL_Driver/Src/stm32wbxx_hal_dma.c ****     /* Disable DMA IT */
 524:Drivers/STM32WBxx_HAL_Driver/Src/stm32wbxx_hal_dma.c ****     __HAL_DMA_DISABLE_IT(hdma, (DMA_IT_TC | DMA_IT_HT | DMA_IT_TE));
 525:Drivers/STM32WBxx_HAL_Driver/Src/stm32wbxx_hal_dma.c **** 
 526:Drivers/STM32WBxx_HAL_Driver/Src/stm32wbxx_hal_dma.c ****     /* disable the DMAMUX sync overrun IT*/
 527:Drivers/STM32WBxx_HAL_Driver/Src/stm32wbxx_hal_dma.c ****     hdma->DMAmuxChannel->CCR &= ~DMAMUX_CxCR_SOIE;
 528:Drivers/STM32WBxx_HAL_Driver/Src/stm32wbxx_hal_dma.c **** 
 529:Drivers/STM32WBxx_HAL_Driver/Src/stm32wbxx_hal_dma.c ****     /* Disable the channel */
 530:Drivers/STM32WBxx_HAL_Driver/Src/stm32wbxx_hal_dma.c ****     __HAL_DMA_DISABLE(hdma);
 531:Drivers/STM32WBxx_HAL_Driver/Src/stm32wbxx_hal_dma.c **** 
 532:Drivers/STM32WBxx_HAL_Driver/Src/stm32wbxx_hal_dma.c ****     /* Clear all flags */
 533:Drivers/STM32WBxx_HAL_Driver/Src/stm32wbxx_hal_dma.c ****     hdma->DmaBaseAddress->IFCR = (DMA_ISR_GIF1 << (hdma->ChannelIndex & 0x1cU));
 534:Drivers/STM32WBxx_HAL_Driver/Src/stm32wbxx_hal_dma.c **** 
 535:Drivers/STM32WBxx_HAL_Driver/Src/stm32wbxx_hal_dma.c ****     /* Clear the DMAMUX synchro overrun flag */
 536:Drivers/STM32WBxx_HAL_Driver/Src/stm32wbxx_hal_dma.c ****     hdma->DMAmuxChannelStatus->CFR = hdma->DMAmuxChannelStatusMask;
 537:Drivers/STM32WBxx_HAL_Driver/Src/stm32wbxx_hal_dma.c **** 
 538:Drivers/STM32WBxx_HAL_Driver/Src/stm32wbxx_hal_dma.c ****     if (hdma->DMAmuxRequestGen != 0U)
 539:Drivers/STM32WBxx_HAL_Driver/Src/stm32wbxx_hal_dma.c ****     {
 540:Drivers/STM32WBxx_HAL_Driver/Src/stm32wbxx_hal_dma.c ****       /* if using DMAMUX request generator, disable the DMAMUX request generator overrun IT*/
 541:Drivers/STM32WBxx_HAL_Driver/Src/stm32wbxx_hal_dma.c ****       /* disable the request gen overrun IT*/
 542:Drivers/STM32WBxx_HAL_Driver/Src/stm32wbxx_hal_dma.c ****       hdma->DMAmuxRequestGen->RGCR &= ~DMAMUX_RGxCR_OIE;
 543:Drivers/STM32WBxx_HAL_Driver/Src/stm32wbxx_hal_dma.c **** 
ARM GAS  C:\Users\Kevin\AppData\Local\Temp\ccg63WcD.s 			page 11


 544:Drivers/STM32WBxx_HAL_Driver/Src/stm32wbxx_hal_dma.c ****       /* Clear the DMAMUX request generator overrun flag */
 545:Drivers/STM32WBxx_HAL_Driver/Src/stm32wbxx_hal_dma.c ****       hdma->DMAmuxRequestGenStatus->RGCFR = hdma->DMAmuxRequestGenStatusMask;
 546:Drivers/STM32WBxx_HAL_Driver/Src/stm32wbxx_hal_dma.c ****     }
 547:Drivers/STM32WBxx_HAL_Driver/Src/stm32wbxx_hal_dma.c **** 
 548:Drivers/STM32WBxx_HAL_Driver/Src/stm32wbxx_hal_dma.c ****     /* Change the DMA state */
 549:Drivers/STM32WBxx_HAL_Driver/Src/stm32wbxx_hal_dma.c ****     hdma->State = HAL_DMA_STATE_READY;
 550:Drivers/STM32WBxx_HAL_Driver/Src/stm32wbxx_hal_dma.c **** 
 551:Drivers/STM32WBxx_HAL_Driver/Src/stm32wbxx_hal_dma.c ****     /* Process Unlocked */
 552:Drivers/STM32WBxx_HAL_Driver/Src/stm32wbxx_hal_dma.c ****     __HAL_UNLOCK(hdma);
 553:Drivers/STM32WBxx_HAL_Driver/Src/stm32wbxx_hal_dma.c ****   }
 554:Drivers/STM32WBxx_HAL_Driver/Src/stm32wbxx_hal_dma.c **** 
 555:Drivers/STM32WBxx_HAL_Driver/Src/stm32wbxx_hal_dma.c ****   return HAL_OK;
 556:Drivers/STM32WBxx_HAL_Driver/Src/stm32wbxx_hal_dma.c **** }
 557:Drivers/STM32WBxx_HAL_Driver/Src/stm32wbxx_hal_dma.c **** 
 558:Drivers/STM32WBxx_HAL_Driver/Src/stm32wbxx_hal_dma.c **** /**
 559:Drivers/STM32WBxx_HAL_Driver/Src/stm32wbxx_hal_dma.c ****   * @brief  Aborts the DMA Transfer in Interrupt mode.
 560:Drivers/STM32WBxx_HAL_Driver/Src/stm32wbxx_hal_dma.c ****   * @param  hdma  Pointer to a DMA_HandleTypeDef structure that contains
 561:Drivers/STM32WBxx_HAL_Driver/Src/stm32wbxx_hal_dma.c ****   *                 the configuration information for the specified DMA Channel.
 562:Drivers/STM32WBxx_HAL_Driver/Src/stm32wbxx_hal_dma.c ****   * @retval HAL status
 563:Drivers/STM32WBxx_HAL_Driver/Src/stm32wbxx_hal_dma.c ****   */
 564:Drivers/STM32WBxx_HAL_Driver/Src/stm32wbxx_hal_dma.c **** HAL_StatusTypeDef HAL_DMA_Abort_IT(DMA_HandleTypeDef *hdma)
 565:Drivers/STM32WBxx_HAL_Driver/Src/stm32wbxx_hal_dma.c **** {
 566:Drivers/STM32WBxx_HAL_Driver/Src/stm32wbxx_hal_dma.c ****   HAL_StatusTypeDef status = HAL_OK;
 567:Drivers/STM32WBxx_HAL_Driver/Src/stm32wbxx_hal_dma.c **** 
 568:Drivers/STM32WBxx_HAL_Driver/Src/stm32wbxx_hal_dma.c ****   if (HAL_DMA_STATE_BUSY != hdma->State)
 569:Drivers/STM32WBxx_HAL_Driver/Src/stm32wbxx_hal_dma.c ****   {
 570:Drivers/STM32WBxx_HAL_Driver/Src/stm32wbxx_hal_dma.c ****     /* no transfer ongoing */
 571:Drivers/STM32WBxx_HAL_Driver/Src/stm32wbxx_hal_dma.c ****     hdma->ErrorCode = HAL_DMA_ERROR_NO_XFER;
 572:Drivers/STM32WBxx_HAL_Driver/Src/stm32wbxx_hal_dma.c **** 
 573:Drivers/STM32WBxx_HAL_Driver/Src/stm32wbxx_hal_dma.c ****     status = HAL_ERROR;
 574:Drivers/STM32WBxx_HAL_Driver/Src/stm32wbxx_hal_dma.c ****   }
 575:Drivers/STM32WBxx_HAL_Driver/Src/stm32wbxx_hal_dma.c ****   else
 576:Drivers/STM32WBxx_HAL_Driver/Src/stm32wbxx_hal_dma.c ****   {
 577:Drivers/STM32WBxx_HAL_Driver/Src/stm32wbxx_hal_dma.c ****     /* Disable DMA IT */
 578:Drivers/STM32WBxx_HAL_Driver/Src/stm32wbxx_hal_dma.c ****     __HAL_DMA_DISABLE_IT(hdma, (DMA_IT_TC | DMA_IT_HT | DMA_IT_TE));
 579:Drivers/STM32WBxx_HAL_Driver/Src/stm32wbxx_hal_dma.c **** 
 580:Drivers/STM32WBxx_HAL_Driver/Src/stm32wbxx_hal_dma.c ****     /* Disable the channel */
 581:Drivers/STM32WBxx_HAL_Driver/Src/stm32wbxx_hal_dma.c ****     __HAL_DMA_DISABLE(hdma);
 582:Drivers/STM32WBxx_HAL_Driver/Src/stm32wbxx_hal_dma.c **** 
 583:Drivers/STM32WBxx_HAL_Driver/Src/stm32wbxx_hal_dma.c ****     /* disable the DMAMUX sync overrun IT*/
 584:Drivers/STM32WBxx_HAL_Driver/Src/stm32wbxx_hal_dma.c ****     hdma->DMAmuxChannel->CCR &= ~DMAMUX_CxCR_SOIE;
 585:Drivers/STM32WBxx_HAL_Driver/Src/stm32wbxx_hal_dma.c **** 
 586:Drivers/STM32WBxx_HAL_Driver/Src/stm32wbxx_hal_dma.c ****     /* Clear all flags */
 587:Drivers/STM32WBxx_HAL_Driver/Src/stm32wbxx_hal_dma.c ****     hdma->DmaBaseAddress->IFCR = (DMA_ISR_GIF1 << (hdma->ChannelIndex & 0x1cU));
 588:Drivers/STM32WBxx_HAL_Driver/Src/stm32wbxx_hal_dma.c **** 
 589:Drivers/STM32WBxx_HAL_Driver/Src/stm32wbxx_hal_dma.c ****     /* Clear the DMAMUX synchro overrun flag */
 590:Drivers/STM32WBxx_HAL_Driver/Src/stm32wbxx_hal_dma.c ****     hdma->DMAmuxChannelStatus->CFR = hdma->DMAmuxChannelStatusMask;
 591:Drivers/STM32WBxx_HAL_Driver/Src/stm32wbxx_hal_dma.c **** 
 592:Drivers/STM32WBxx_HAL_Driver/Src/stm32wbxx_hal_dma.c ****     if (hdma->DMAmuxRequestGen != 0U)
 593:Drivers/STM32WBxx_HAL_Driver/Src/stm32wbxx_hal_dma.c ****     {
 594:Drivers/STM32WBxx_HAL_Driver/Src/stm32wbxx_hal_dma.c ****       /* if using DMAMUX request generator, disable the DMAMUX request generator overrun IT*/
 595:Drivers/STM32WBxx_HAL_Driver/Src/stm32wbxx_hal_dma.c ****       /* disable the request gen overrun IT*/
 596:Drivers/STM32WBxx_HAL_Driver/Src/stm32wbxx_hal_dma.c ****       hdma->DMAmuxRequestGen->RGCR &= ~DMAMUX_RGxCR_OIE;
 597:Drivers/STM32WBxx_HAL_Driver/Src/stm32wbxx_hal_dma.c **** 
 598:Drivers/STM32WBxx_HAL_Driver/Src/stm32wbxx_hal_dma.c ****       /* Clear the DMAMUX request generator overrun flag */
 599:Drivers/STM32WBxx_HAL_Driver/Src/stm32wbxx_hal_dma.c ****       hdma->DMAmuxRequestGenStatus->RGCFR = hdma->DMAmuxRequestGenStatusMask;
 600:Drivers/STM32WBxx_HAL_Driver/Src/stm32wbxx_hal_dma.c ****     }
ARM GAS  C:\Users\Kevin\AppData\Local\Temp\ccg63WcD.s 			page 12


 601:Drivers/STM32WBxx_HAL_Driver/Src/stm32wbxx_hal_dma.c **** 
 602:Drivers/STM32WBxx_HAL_Driver/Src/stm32wbxx_hal_dma.c ****     /* Change the DMA state */
 603:Drivers/STM32WBxx_HAL_Driver/Src/stm32wbxx_hal_dma.c ****     hdma->State = HAL_DMA_STATE_READY;
 604:Drivers/STM32WBxx_HAL_Driver/Src/stm32wbxx_hal_dma.c **** 
 605:Drivers/STM32WBxx_HAL_Driver/Src/stm32wbxx_hal_dma.c ****     /* Process Unlocked */
 606:Drivers/STM32WBxx_HAL_Driver/Src/stm32wbxx_hal_dma.c ****     __HAL_UNLOCK(hdma);
 607:Drivers/STM32WBxx_HAL_Driver/Src/stm32wbxx_hal_dma.c **** 
 608:Drivers/STM32WBxx_HAL_Driver/Src/stm32wbxx_hal_dma.c ****     /* Call User Abort callback */
 609:Drivers/STM32WBxx_HAL_Driver/Src/stm32wbxx_hal_dma.c ****     if (hdma->XferAbortCallback != NULL)
 610:Drivers/STM32WBxx_HAL_Driver/Src/stm32wbxx_hal_dma.c ****     {
 611:Drivers/STM32WBxx_HAL_Driver/Src/stm32wbxx_hal_dma.c ****       hdma->XferAbortCallback(hdma);
 612:Drivers/STM32WBxx_HAL_Driver/Src/stm32wbxx_hal_dma.c ****     }
 613:Drivers/STM32WBxx_HAL_Driver/Src/stm32wbxx_hal_dma.c ****   }
 614:Drivers/STM32WBxx_HAL_Driver/Src/stm32wbxx_hal_dma.c ****   return status;
 615:Drivers/STM32WBxx_HAL_Driver/Src/stm32wbxx_hal_dma.c **** }
 616:Drivers/STM32WBxx_HAL_Driver/Src/stm32wbxx_hal_dma.c **** 
 617:Drivers/STM32WBxx_HAL_Driver/Src/stm32wbxx_hal_dma.c **** /**
 618:Drivers/STM32WBxx_HAL_Driver/Src/stm32wbxx_hal_dma.c ****   * @brief  Polling for transfer complete.
 619:Drivers/STM32WBxx_HAL_Driver/Src/stm32wbxx_hal_dma.c ****   * @param hdma Pointer to a DMA_HandleTypeDef structure that contains
 620:Drivers/STM32WBxx_HAL_Driver/Src/stm32wbxx_hal_dma.c ****   *                  the configuration information for the specified DMA Channel.
 621:Drivers/STM32WBxx_HAL_Driver/Src/stm32wbxx_hal_dma.c ****   * @param CompleteLevel Specifies the DMA level complete.
 622:Drivers/STM32WBxx_HAL_Driver/Src/stm32wbxx_hal_dma.c ****   * @param Timeout Timeout duration.
 623:Drivers/STM32WBxx_HAL_Driver/Src/stm32wbxx_hal_dma.c ****   * @retval HAL status
 624:Drivers/STM32WBxx_HAL_Driver/Src/stm32wbxx_hal_dma.c ****   */
 625:Drivers/STM32WBxx_HAL_Driver/Src/stm32wbxx_hal_dma.c **** HAL_StatusTypeDef HAL_DMA_PollForTransfer(DMA_HandleTypeDef *hdma, HAL_DMA_LevelCompleteTypeDef Com
 626:Drivers/STM32WBxx_HAL_Driver/Src/stm32wbxx_hal_dma.c ****                                           uint32_t Timeout)
 627:Drivers/STM32WBxx_HAL_Driver/Src/stm32wbxx_hal_dma.c **** {
 628:Drivers/STM32WBxx_HAL_Driver/Src/stm32wbxx_hal_dma.c ****   uint32_t temp;
 629:Drivers/STM32WBxx_HAL_Driver/Src/stm32wbxx_hal_dma.c ****   uint32_t tickstart;
 630:Drivers/STM32WBxx_HAL_Driver/Src/stm32wbxx_hal_dma.c **** 
 631:Drivers/STM32WBxx_HAL_Driver/Src/stm32wbxx_hal_dma.c ****   if (HAL_DMA_STATE_BUSY != hdma->State)
 632:Drivers/STM32WBxx_HAL_Driver/Src/stm32wbxx_hal_dma.c ****   {
 633:Drivers/STM32WBxx_HAL_Driver/Src/stm32wbxx_hal_dma.c ****     /* no transfer ongoing */
 634:Drivers/STM32WBxx_HAL_Driver/Src/stm32wbxx_hal_dma.c ****     hdma->ErrorCode = HAL_DMA_ERROR_NO_XFER;
 635:Drivers/STM32WBxx_HAL_Driver/Src/stm32wbxx_hal_dma.c ****     __HAL_UNLOCK(hdma);
 636:Drivers/STM32WBxx_HAL_Driver/Src/stm32wbxx_hal_dma.c ****     return HAL_ERROR;
 637:Drivers/STM32WBxx_HAL_Driver/Src/stm32wbxx_hal_dma.c ****   }
 638:Drivers/STM32WBxx_HAL_Driver/Src/stm32wbxx_hal_dma.c **** 
 639:Drivers/STM32WBxx_HAL_Driver/Src/stm32wbxx_hal_dma.c ****   /* Polling mode not supported in circular mode */
 640:Drivers/STM32WBxx_HAL_Driver/Src/stm32wbxx_hal_dma.c ****   if ((hdma->Instance->CCR & DMA_CCR_CIRC) != 0U)
 641:Drivers/STM32WBxx_HAL_Driver/Src/stm32wbxx_hal_dma.c ****   {
 642:Drivers/STM32WBxx_HAL_Driver/Src/stm32wbxx_hal_dma.c ****     hdma->ErrorCode = HAL_DMA_ERROR_NOT_SUPPORTED;
 643:Drivers/STM32WBxx_HAL_Driver/Src/stm32wbxx_hal_dma.c ****     return HAL_ERROR;
 644:Drivers/STM32WBxx_HAL_Driver/Src/stm32wbxx_hal_dma.c ****   }
 645:Drivers/STM32WBxx_HAL_Driver/Src/stm32wbxx_hal_dma.c **** 
 646:Drivers/STM32WBxx_HAL_Driver/Src/stm32wbxx_hal_dma.c ****   /* Get the level transfer complete flag */
 647:Drivers/STM32WBxx_HAL_Driver/Src/stm32wbxx_hal_dma.c ****   if (HAL_DMA_FULL_TRANSFER == CompleteLevel)
 648:Drivers/STM32WBxx_HAL_Driver/Src/stm32wbxx_hal_dma.c ****   {
 649:Drivers/STM32WBxx_HAL_Driver/Src/stm32wbxx_hal_dma.c ****     /* Transfer Complete flag */
 650:Drivers/STM32WBxx_HAL_Driver/Src/stm32wbxx_hal_dma.c ****     temp = DMA_FLAG_TC1 << (hdma->ChannelIndex & 0x1cU);
 651:Drivers/STM32WBxx_HAL_Driver/Src/stm32wbxx_hal_dma.c ****   }
 652:Drivers/STM32WBxx_HAL_Driver/Src/stm32wbxx_hal_dma.c ****   else
 653:Drivers/STM32WBxx_HAL_Driver/Src/stm32wbxx_hal_dma.c ****   {
 654:Drivers/STM32WBxx_HAL_Driver/Src/stm32wbxx_hal_dma.c ****     /* Half Transfer Complete flag */
 655:Drivers/STM32WBxx_HAL_Driver/Src/stm32wbxx_hal_dma.c ****     temp = DMA_FLAG_HT1 << (hdma->ChannelIndex  & 0x1cU);
 656:Drivers/STM32WBxx_HAL_Driver/Src/stm32wbxx_hal_dma.c ****   }
 657:Drivers/STM32WBxx_HAL_Driver/Src/stm32wbxx_hal_dma.c **** 
ARM GAS  C:\Users\Kevin\AppData\Local\Temp\ccg63WcD.s 			page 13


 658:Drivers/STM32WBxx_HAL_Driver/Src/stm32wbxx_hal_dma.c ****   /* Get tick */
 659:Drivers/STM32WBxx_HAL_Driver/Src/stm32wbxx_hal_dma.c ****   tickstart = HAL_GetTick();
 660:Drivers/STM32WBxx_HAL_Driver/Src/stm32wbxx_hal_dma.c **** 
 661:Drivers/STM32WBxx_HAL_Driver/Src/stm32wbxx_hal_dma.c ****   while ((hdma->DmaBaseAddress->ISR & temp) == 0U)
 662:Drivers/STM32WBxx_HAL_Driver/Src/stm32wbxx_hal_dma.c ****   {
 663:Drivers/STM32WBxx_HAL_Driver/Src/stm32wbxx_hal_dma.c ****     if ((hdma->DmaBaseAddress->ISR & (DMA_FLAG_TE1 << (hdma->ChannelIndex & 0x1CU))) != 0U)
 664:Drivers/STM32WBxx_HAL_Driver/Src/stm32wbxx_hal_dma.c ****     {
 665:Drivers/STM32WBxx_HAL_Driver/Src/stm32wbxx_hal_dma.c ****       /* When a DMA transfer error occurs */
 666:Drivers/STM32WBxx_HAL_Driver/Src/stm32wbxx_hal_dma.c ****       /* A hardware clear of its EN bits is performed */
 667:Drivers/STM32WBxx_HAL_Driver/Src/stm32wbxx_hal_dma.c ****       /* Clear all flags */
 668:Drivers/STM32WBxx_HAL_Driver/Src/stm32wbxx_hal_dma.c ****       hdma->DmaBaseAddress->IFCR = (DMA_ISR_GIF1 << (hdma->ChannelIndex & 0x1cU));
 669:Drivers/STM32WBxx_HAL_Driver/Src/stm32wbxx_hal_dma.c **** 
 670:Drivers/STM32WBxx_HAL_Driver/Src/stm32wbxx_hal_dma.c ****       /* Update error code */
 671:Drivers/STM32WBxx_HAL_Driver/Src/stm32wbxx_hal_dma.c ****       hdma->ErrorCode = HAL_DMA_ERROR_TE;
 672:Drivers/STM32WBxx_HAL_Driver/Src/stm32wbxx_hal_dma.c **** 
 673:Drivers/STM32WBxx_HAL_Driver/Src/stm32wbxx_hal_dma.c ****       /* Change the DMA state */
 674:Drivers/STM32WBxx_HAL_Driver/Src/stm32wbxx_hal_dma.c ****       hdma->State = HAL_DMA_STATE_READY;
 675:Drivers/STM32WBxx_HAL_Driver/Src/stm32wbxx_hal_dma.c **** 
 676:Drivers/STM32WBxx_HAL_Driver/Src/stm32wbxx_hal_dma.c ****       /* Process Unlocked */
 677:Drivers/STM32WBxx_HAL_Driver/Src/stm32wbxx_hal_dma.c ****       __HAL_UNLOCK(hdma);
 678:Drivers/STM32WBxx_HAL_Driver/Src/stm32wbxx_hal_dma.c **** 
 679:Drivers/STM32WBxx_HAL_Driver/Src/stm32wbxx_hal_dma.c ****       return HAL_ERROR;
 680:Drivers/STM32WBxx_HAL_Driver/Src/stm32wbxx_hal_dma.c ****     }
 681:Drivers/STM32WBxx_HAL_Driver/Src/stm32wbxx_hal_dma.c ****     /* Check for the Timeout */
 682:Drivers/STM32WBxx_HAL_Driver/Src/stm32wbxx_hal_dma.c ****     if (Timeout != HAL_MAX_DELAY)
 683:Drivers/STM32WBxx_HAL_Driver/Src/stm32wbxx_hal_dma.c ****     {
 684:Drivers/STM32WBxx_HAL_Driver/Src/stm32wbxx_hal_dma.c ****       if (((HAL_GetTick() - tickstart) > Timeout) || (Timeout == 0U))
 685:Drivers/STM32WBxx_HAL_Driver/Src/stm32wbxx_hal_dma.c ****       {
 686:Drivers/STM32WBxx_HAL_Driver/Src/stm32wbxx_hal_dma.c ****         /* Update error code */
 687:Drivers/STM32WBxx_HAL_Driver/Src/stm32wbxx_hal_dma.c ****         hdma->ErrorCode = HAL_DMA_ERROR_TIMEOUT;
 688:Drivers/STM32WBxx_HAL_Driver/Src/stm32wbxx_hal_dma.c **** 
 689:Drivers/STM32WBxx_HAL_Driver/Src/stm32wbxx_hal_dma.c ****         /* Change the DMA state */
 690:Drivers/STM32WBxx_HAL_Driver/Src/stm32wbxx_hal_dma.c ****         hdma->State = HAL_DMA_STATE_READY;
 691:Drivers/STM32WBxx_HAL_Driver/Src/stm32wbxx_hal_dma.c **** 
 692:Drivers/STM32WBxx_HAL_Driver/Src/stm32wbxx_hal_dma.c ****         /* Process Unlocked */
 693:Drivers/STM32WBxx_HAL_Driver/Src/stm32wbxx_hal_dma.c ****         __HAL_UNLOCK(hdma);
 694:Drivers/STM32WBxx_HAL_Driver/Src/stm32wbxx_hal_dma.c **** 
 695:Drivers/STM32WBxx_HAL_Driver/Src/stm32wbxx_hal_dma.c ****         return HAL_ERROR;
 696:Drivers/STM32WBxx_HAL_Driver/Src/stm32wbxx_hal_dma.c ****       }
 697:Drivers/STM32WBxx_HAL_Driver/Src/stm32wbxx_hal_dma.c ****     }
 698:Drivers/STM32WBxx_HAL_Driver/Src/stm32wbxx_hal_dma.c ****   }
 699:Drivers/STM32WBxx_HAL_Driver/Src/stm32wbxx_hal_dma.c **** 
 700:Drivers/STM32WBxx_HAL_Driver/Src/stm32wbxx_hal_dma.c ****   /*Check for DMAMUX Request generator (if used) overrun status */
 701:Drivers/STM32WBxx_HAL_Driver/Src/stm32wbxx_hal_dma.c ****   if (hdma->DMAmuxRequestGen != 0U)
 702:Drivers/STM32WBxx_HAL_Driver/Src/stm32wbxx_hal_dma.c ****   {
 703:Drivers/STM32WBxx_HAL_Driver/Src/stm32wbxx_hal_dma.c ****     /* if using DMAMUX request generator Check for DMAMUX request generator overrun */
 704:Drivers/STM32WBxx_HAL_Driver/Src/stm32wbxx_hal_dma.c ****     if ((hdma->DMAmuxRequestGenStatus->RGSR & hdma->DMAmuxRequestGenStatusMask) != 0U)
 705:Drivers/STM32WBxx_HAL_Driver/Src/stm32wbxx_hal_dma.c ****     {
 706:Drivers/STM32WBxx_HAL_Driver/Src/stm32wbxx_hal_dma.c ****       /* Disable the request gen overrun interrupt */
 707:Drivers/STM32WBxx_HAL_Driver/Src/stm32wbxx_hal_dma.c ****       hdma->DMAmuxRequestGen->RGCR |= DMAMUX_RGxCR_OIE;
 708:Drivers/STM32WBxx_HAL_Driver/Src/stm32wbxx_hal_dma.c **** 
 709:Drivers/STM32WBxx_HAL_Driver/Src/stm32wbxx_hal_dma.c ****       /* Clear the DMAMUX request generator overrun flag */
 710:Drivers/STM32WBxx_HAL_Driver/Src/stm32wbxx_hal_dma.c ****       hdma->DMAmuxRequestGenStatus->RGCFR = hdma->DMAmuxRequestGenStatusMask;
 711:Drivers/STM32WBxx_HAL_Driver/Src/stm32wbxx_hal_dma.c **** 
 712:Drivers/STM32WBxx_HAL_Driver/Src/stm32wbxx_hal_dma.c ****       /* Update error code */
 713:Drivers/STM32WBxx_HAL_Driver/Src/stm32wbxx_hal_dma.c ****       hdma->ErrorCode |= HAL_DMA_ERROR_REQGEN;
 714:Drivers/STM32WBxx_HAL_Driver/Src/stm32wbxx_hal_dma.c ****     }
ARM GAS  C:\Users\Kevin\AppData\Local\Temp\ccg63WcD.s 			page 14


 715:Drivers/STM32WBxx_HAL_Driver/Src/stm32wbxx_hal_dma.c ****   }
 716:Drivers/STM32WBxx_HAL_Driver/Src/stm32wbxx_hal_dma.c **** 
 717:Drivers/STM32WBxx_HAL_Driver/Src/stm32wbxx_hal_dma.c ****   /* Check for DMAMUX Synchronization overrun */
 718:Drivers/STM32WBxx_HAL_Driver/Src/stm32wbxx_hal_dma.c ****   if ((hdma->DMAmuxChannelStatus->CSR & hdma->DMAmuxChannelStatusMask) != 0U)
 719:Drivers/STM32WBxx_HAL_Driver/Src/stm32wbxx_hal_dma.c ****   {
 720:Drivers/STM32WBxx_HAL_Driver/Src/stm32wbxx_hal_dma.c ****     /* Clear the DMAMUX synchro overrun flag */
 721:Drivers/STM32WBxx_HAL_Driver/Src/stm32wbxx_hal_dma.c ****     hdma->DMAmuxChannelStatus->CFR = hdma->DMAmuxChannelStatusMask;
 722:Drivers/STM32WBxx_HAL_Driver/Src/stm32wbxx_hal_dma.c **** 
 723:Drivers/STM32WBxx_HAL_Driver/Src/stm32wbxx_hal_dma.c ****     /* Update error code */
 724:Drivers/STM32WBxx_HAL_Driver/Src/stm32wbxx_hal_dma.c ****     hdma->ErrorCode |= HAL_DMA_ERROR_SYNC;
 725:Drivers/STM32WBxx_HAL_Driver/Src/stm32wbxx_hal_dma.c ****   }
 726:Drivers/STM32WBxx_HAL_Driver/Src/stm32wbxx_hal_dma.c **** 
 727:Drivers/STM32WBxx_HAL_Driver/Src/stm32wbxx_hal_dma.c ****   if (HAL_DMA_FULL_TRANSFER == CompleteLevel)
 728:Drivers/STM32WBxx_HAL_Driver/Src/stm32wbxx_hal_dma.c ****   {
 729:Drivers/STM32WBxx_HAL_Driver/Src/stm32wbxx_hal_dma.c ****     /* Clear the transfer complete flag */
 730:Drivers/STM32WBxx_HAL_Driver/Src/stm32wbxx_hal_dma.c ****     hdma->DmaBaseAddress->IFCR = (DMA_FLAG_TC1 << (hdma->ChannelIndex & 0x1cU));
 731:Drivers/STM32WBxx_HAL_Driver/Src/stm32wbxx_hal_dma.c **** 
 732:Drivers/STM32WBxx_HAL_Driver/Src/stm32wbxx_hal_dma.c ****     /* Process unlocked */
 733:Drivers/STM32WBxx_HAL_Driver/Src/stm32wbxx_hal_dma.c ****     __HAL_UNLOCK(hdma);
 734:Drivers/STM32WBxx_HAL_Driver/Src/stm32wbxx_hal_dma.c **** 
 735:Drivers/STM32WBxx_HAL_Driver/Src/stm32wbxx_hal_dma.c ****     /* The selected Channelx EN bit is cleared (DMA is disabled and
 736:Drivers/STM32WBxx_HAL_Driver/Src/stm32wbxx_hal_dma.c ****     all transfers are complete) */
 737:Drivers/STM32WBxx_HAL_Driver/Src/stm32wbxx_hal_dma.c ****     hdma->State = HAL_DMA_STATE_READY;
 738:Drivers/STM32WBxx_HAL_Driver/Src/stm32wbxx_hal_dma.c ****   }
 739:Drivers/STM32WBxx_HAL_Driver/Src/stm32wbxx_hal_dma.c ****   else
 740:Drivers/STM32WBxx_HAL_Driver/Src/stm32wbxx_hal_dma.c ****   {
 741:Drivers/STM32WBxx_HAL_Driver/Src/stm32wbxx_hal_dma.c ****     /* Clear the half transfer complete flag */
 742:Drivers/STM32WBxx_HAL_Driver/Src/stm32wbxx_hal_dma.c ****     hdma->DmaBaseAddress->IFCR = (DMA_FLAG_HT1 << (hdma->ChannelIndex & 0x1cU));
 743:Drivers/STM32WBxx_HAL_Driver/Src/stm32wbxx_hal_dma.c ****   }
 744:Drivers/STM32WBxx_HAL_Driver/Src/stm32wbxx_hal_dma.c **** 
 745:Drivers/STM32WBxx_HAL_Driver/Src/stm32wbxx_hal_dma.c ****   return HAL_OK;
 746:Drivers/STM32WBxx_HAL_Driver/Src/stm32wbxx_hal_dma.c **** }
 747:Drivers/STM32WBxx_HAL_Driver/Src/stm32wbxx_hal_dma.c **** 
 748:Drivers/STM32WBxx_HAL_Driver/Src/stm32wbxx_hal_dma.c **** /**
 749:Drivers/STM32WBxx_HAL_Driver/Src/stm32wbxx_hal_dma.c ****   * @brief  Handle DMA interrupt request.
 750:Drivers/STM32WBxx_HAL_Driver/Src/stm32wbxx_hal_dma.c ****   * @param hdma Pointer to a DMA_HandleTypeDef structure that contains
 751:Drivers/STM32WBxx_HAL_Driver/Src/stm32wbxx_hal_dma.c ****   *               the configuration information for the specified DMA Channel.
 752:Drivers/STM32WBxx_HAL_Driver/Src/stm32wbxx_hal_dma.c ****   * @retval None
 753:Drivers/STM32WBxx_HAL_Driver/Src/stm32wbxx_hal_dma.c ****   */
 754:Drivers/STM32WBxx_HAL_Driver/Src/stm32wbxx_hal_dma.c **** void HAL_DMA_IRQHandler(DMA_HandleTypeDef *hdma)
 755:Drivers/STM32WBxx_HAL_Driver/Src/stm32wbxx_hal_dma.c **** {
 756:Drivers/STM32WBxx_HAL_Driver/Src/stm32wbxx_hal_dma.c ****   uint32_t flag_it = hdma->DmaBaseAddress->ISR;
 757:Drivers/STM32WBxx_HAL_Driver/Src/stm32wbxx_hal_dma.c ****   uint32_t source_it = hdma->Instance->CCR;
 758:Drivers/STM32WBxx_HAL_Driver/Src/stm32wbxx_hal_dma.c **** 
 759:Drivers/STM32WBxx_HAL_Driver/Src/stm32wbxx_hal_dma.c ****   /* Half Transfer Complete Interrupt management ******************************/
 760:Drivers/STM32WBxx_HAL_Driver/Src/stm32wbxx_hal_dma.c ****   if (((flag_it & (DMA_FLAG_HT1 << (hdma->ChannelIndex & 0x1cU))) != 0U) && ((source_it & DMA_IT_HT
 761:Drivers/STM32WBxx_HAL_Driver/Src/stm32wbxx_hal_dma.c ****   {
 762:Drivers/STM32WBxx_HAL_Driver/Src/stm32wbxx_hal_dma.c ****     /* Disable the half transfer interrupt if the DMA mode is not CIRCULAR */
 763:Drivers/STM32WBxx_HAL_Driver/Src/stm32wbxx_hal_dma.c ****     if ((hdma->Instance->CCR & DMA_CCR_CIRC) == 0U)
 764:Drivers/STM32WBxx_HAL_Driver/Src/stm32wbxx_hal_dma.c ****     {
 765:Drivers/STM32WBxx_HAL_Driver/Src/stm32wbxx_hal_dma.c ****       /* Disable the half transfer interrupt */
 766:Drivers/STM32WBxx_HAL_Driver/Src/stm32wbxx_hal_dma.c ****       __HAL_DMA_DISABLE_IT(hdma, DMA_IT_HT);
 767:Drivers/STM32WBxx_HAL_Driver/Src/stm32wbxx_hal_dma.c ****     }
 768:Drivers/STM32WBxx_HAL_Driver/Src/stm32wbxx_hal_dma.c ****     /* Clear the half transfer complete flag */
 769:Drivers/STM32WBxx_HAL_Driver/Src/stm32wbxx_hal_dma.c ****     hdma->DmaBaseAddress->IFCR = (DMA_ISR_HTIF1 << (hdma->ChannelIndex & 0x1CU));
 770:Drivers/STM32WBxx_HAL_Driver/Src/stm32wbxx_hal_dma.c **** 
 771:Drivers/STM32WBxx_HAL_Driver/Src/stm32wbxx_hal_dma.c ****     /* DMA peripheral state is not updated in Half Transfer */
ARM GAS  C:\Users\Kevin\AppData\Local\Temp\ccg63WcD.s 			page 15


 772:Drivers/STM32WBxx_HAL_Driver/Src/stm32wbxx_hal_dma.c ****     /* but in Transfer Complete case */
 773:Drivers/STM32WBxx_HAL_Driver/Src/stm32wbxx_hal_dma.c **** 
 774:Drivers/STM32WBxx_HAL_Driver/Src/stm32wbxx_hal_dma.c ****     if (hdma->XferHalfCpltCallback != NULL)
 775:Drivers/STM32WBxx_HAL_Driver/Src/stm32wbxx_hal_dma.c ****     {
 776:Drivers/STM32WBxx_HAL_Driver/Src/stm32wbxx_hal_dma.c ****       /* Half transfer callback */
 777:Drivers/STM32WBxx_HAL_Driver/Src/stm32wbxx_hal_dma.c ****       hdma->XferHalfCpltCallback(hdma);
 778:Drivers/STM32WBxx_HAL_Driver/Src/stm32wbxx_hal_dma.c ****     }
 779:Drivers/STM32WBxx_HAL_Driver/Src/stm32wbxx_hal_dma.c ****   }
 780:Drivers/STM32WBxx_HAL_Driver/Src/stm32wbxx_hal_dma.c **** 
 781:Drivers/STM32WBxx_HAL_Driver/Src/stm32wbxx_hal_dma.c ****   /* Transfer Complete Interrupt management ***********************************/
 782:Drivers/STM32WBxx_HAL_Driver/Src/stm32wbxx_hal_dma.c ****   else if (((flag_it & (DMA_FLAG_TC1 << (hdma->ChannelIndex & 0x1cU))) != 0U) && ((source_it & DMA_
 783:Drivers/STM32WBxx_HAL_Driver/Src/stm32wbxx_hal_dma.c ****   {
 784:Drivers/STM32WBxx_HAL_Driver/Src/stm32wbxx_hal_dma.c ****     if ((hdma->Instance->CCR & DMA_CCR_CIRC) == 0U)
 785:Drivers/STM32WBxx_HAL_Driver/Src/stm32wbxx_hal_dma.c ****     {
 786:Drivers/STM32WBxx_HAL_Driver/Src/stm32wbxx_hal_dma.c ****       /* Disable the transfer complete and error interrupt */
 787:Drivers/STM32WBxx_HAL_Driver/Src/stm32wbxx_hal_dma.c ****       __HAL_DMA_DISABLE_IT(hdma, DMA_IT_TE | DMA_IT_TC);
 788:Drivers/STM32WBxx_HAL_Driver/Src/stm32wbxx_hal_dma.c **** 
 789:Drivers/STM32WBxx_HAL_Driver/Src/stm32wbxx_hal_dma.c ****       /* Change the DMA state */
 790:Drivers/STM32WBxx_HAL_Driver/Src/stm32wbxx_hal_dma.c ****       hdma->State = HAL_DMA_STATE_READY;
 791:Drivers/STM32WBxx_HAL_Driver/Src/stm32wbxx_hal_dma.c ****     }
 792:Drivers/STM32WBxx_HAL_Driver/Src/stm32wbxx_hal_dma.c ****     /* Clear the transfer complete flag */
 793:Drivers/STM32WBxx_HAL_Driver/Src/stm32wbxx_hal_dma.c ****     hdma->DmaBaseAddress->IFCR = (DMA_ISR_TCIF1 << (hdma->ChannelIndex & 0x1cU));
 794:Drivers/STM32WBxx_HAL_Driver/Src/stm32wbxx_hal_dma.c **** 
 795:Drivers/STM32WBxx_HAL_Driver/Src/stm32wbxx_hal_dma.c ****     /* Process Unlocked */
 796:Drivers/STM32WBxx_HAL_Driver/Src/stm32wbxx_hal_dma.c ****     __HAL_UNLOCK(hdma);
 797:Drivers/STM32WBxx_HAL_Driver/Src/stm32wbxx_hal_dma.c **** 
 798:Drivers/STM32WBxx_HAL_Driver/Src/stm32wbxx_hal_dma.c ****     if (hdma->XferCpltCallback != NULL)
 799:Drivers/STM32WBxx_HAL_Driver/Src/stm32wbxx_hal_dma.c ****     {
 800:Drivers/STM32WBxx_HAL_Driver/Src/stm32wbxx_hal_dma.c ****       /* Transfer complete callback */
 801:Drivers/STM32WBxx_HAL_Driver/Src/stm32wbxx_hal_dma.c ****       hdma->XferCpltCallback(hdma);
 802:Drivers/STM32WBxx_HAL_Driver/Src/stm32wbxx_hal_dma.c ****     }
 803:Drivers/STM32WBxx_HAL_Driver/Src/stm32wbxx_hal_dma.c ****   }
 804:Drivers/STM32WBxx_HAL_Driver/Src/stm32wbxx_hal_dma.c **** 
 805:Drivers/STM32WBxx_HAL_Driver/Src/stm32wbxx_hal_dma.c ****   /* Transfer Error Interrupt management **************************************/
 806:Drivers/STM32WBxx_HAL_Driver/Src/stm32wbxx_hal_dma.c ****   else if (((flag_it & (DMA_FLAG_TE1 << (hdma->ChannelIndex & 0x1cU))) != 0U) && ((source_it & DMA_
 807:Drivers/STM32WBxx_HAL_Driver/Src/stm32wbxx_hal_dma.c ****   {
 808:Drivers/STM32WBxx_HAL_Driver/Src/stm32wbxx_hal_dma.c ****     /* When a DMA transfer error occurs */
 809:Drivers/STM32WBxx_HAL_Driver/Src/stm32wbxx_hal_dma.c ****     /* A hardware clear of its EN bits is performed */
 810:Drivers/STM32WBxx_HAL_Driver/Src/stm32wbxx_hal_dma.c ****     /* Disable ALL DMA IT */
 811:Drivers/STM32WBxx_HAL_Driver/Src/stm32wbxx_hal_dma.c ****     __HAL_DMA_DISABLE_IT(hdma, (DMA_IT_TC | DMA_IT_HT | DMA_IT_TE));
 812:Drivers/STM32WBxx_HAL_Driver/Src/stm32wbxx_hal_dma.c **** 
 813:Drivers/STM32WBxx_HAL_Driver/Src/stm32wbxx_hal_dma.c ****     /* Clear all flags */
 814:Drivers/STM32WBxx_HAL_Driver/Src/stm32wbxx_hal_dma.c ****     hdma->DmaBaseAddress->IFCR = (DMA_ISR_GIF1 << (hdma->ChannelIndex & 0x1cU));
 815:Drivers/STM32WBxx_HAL_Driver/Src/stm32wbxx_hal_dma.c **** 
 816:Drivers/STM32WBxx_HAL_Driver/Src/stm32wbxx_hal_dma.c ****     /* Update error code */
 817:Drivers/STM32WBxx_HAL_Driver/Src/stm32wbxx_hal_dma.c ****     hdma->ErrorCode = HAL_DMA_ERROR_TE;
 818:Drivers/STM32WBxx_HAL_Driver/Src/stm32wbxx_hal_dma.c **** 
 819:Drivers/STM32WBxx_HAL_Driver/Src/stm32wbxx_hal_dma.c ****     /* Change the DMA state */
 820:Drivers/STM32WBxx_HAL_Driver/Src/stm32wbxx_hal_dma.c ****     hdma->State = HAL_DMA_STATE_READY;
 821:Drivers/STM32WBxx_HAL_Driver/Src/stm32wbxx_hal_dma.c **** 
 822:Drivers/STM32WBxx_HAL_Driver/Src/stm32wbxx_hal_dma.c ****     /* Process Unlocked */
 823:Drivers/STM32WBxx_HAL_Driver/Src/stm32wbxx_hal_dma.c ****     __HAL_UNLOCK(hdma);
 824:Drivers/STM32WBxx_HAL_Driver/Src/stm32wbxx_hal_dma.c **** 
 825:Drivers/STM32WBxx_HAL_Driver/Src/stm32wbxx_hal_dma.c ****     if (hdma->XferErrorCallback != NULL)
 826:Drivers/STM32WBxx_HAL_Driver/Src/stm32wbxx_hal_dma.c ****     {
 827:Drivers/STM32WBxx_HAL_Driver/Src/stm32wbxx_hal_dma.c ****       /* Transfer error callback */
 828:Drivers/STM32WBxx_HAL_Driver/Src/stm32wbxx_hal_dma.c ****       hdma->XferErrorCallback(hdma);
ARM GAS  C:\Users\Kevin\AppData\Local\Temp\ccg63WcD.s 			page 16


 829:Drivers/STM32WBxx_HAL_Driver/Src/stm32wbxx_hal_dma.c ****     }
 830:Drivers/STM32WBxx_HAL_Driver/Src/stm32wbxx_hal_dma.c ****   }
 831:Drivers/STM32WBxx_HAL_Driver/Src/stm32wbxx_hal_dma.c ****   else
 832:Drivers/STM32WBxx_HAL_Driver/Src/stm32wbxx_hal_dma.c ****   {
 833:Drivers/STM32WBxx_HAL_Driver/Src/stm32wbxx_hal_dma.c ****     /* Nothing To Do */
 834:Drivers/STM32WBxx_HAL_Driver/Src/stm32wbxx_hal_dma.c ****   }
 835:Drivers/STM32WBxx_HAL_Driver/Src/stm32wbxx_hal_dma.c ****   return;
 836:Drivers/STM32WBxx_HAL_Driver/Src/stm32wbxx_hal_dma.c **** }
 837:Drivers/STM32WBxx_HAL_Driver/Src/stm32wbxx_hal_dma.c **** 
 838:Drivers/STM32WBxx_HAL_Driver/Src/stm32wbxx_hal_dma.c **** /**
 839:Drivers/STM32WBxx_HAL_Driver/Src/stm32wbxx_hal_dma.c ****   * @brief  Register callbacks
 840:Drivers/STM32WBxx_HAL_Driver/Src/stm32wbxx_hal_dma.c ****   * @param hdma Pointer to a DMA_HandleTypeDef structure that contains
 841:Drivers/STM32WBxx_HAL_Driver/Src/stm32wbxx_hal_dma.c ****   *                               the configuration information for the specified DMA Channel.
 842:Drivers/STM32WBxx_HAL_Driver/Src/stm32wbxx_hal_dma.c ****   * @param CallbackID User Callback identifier
 843:Drivers/STM32WBxx_HAL_Driver/Src/stm32wbxx_hal_dma.c ****   *                               a HAL_DMA_CallbackIDTypeDef ENUM as parameter.
 844:Drivers/STM32WBxx_HAL_Driver/Src/stm32wbxx_hal_dma.c ****   * @param pCallback Pointer to private callback function which has pointer to
 845:Drivers/STM32WBxx_HAL_Driver/Src/stm32wbxx_hal_dma.c ****   *                               a DMA_HandleTypeDef structure as parameter.
 846:Drivers/STM32WBxx_HAL_Driver/Src/stm32wbxx_hal_dma.c ****   * @retval HAL status
 847:Drivers/STM32WBxx_HAL_Driver/Src/stm32wbxx_hal_dma.c ****   */
 848:Drivers/STM32WBxx_HAL_Driver/Src/stm32wbxx_hal_dma.c **** HAL_StatusTypeDef HAL_DMA_RegisterCallback(DMA_HandleTypeDef *hdma, HAL_DMA_CallbackIDTypeDef Callb
 849:Drivers/STM32WBxx_HAL_Driver/Src/stm32wbxx_hal_dma.c **** {
 850:Drivers/STM32WBxx_HAL_Driver/Src/stm32wbxx_hal_dma.c ****   HAL_StatusTypeDef status = HAL_OK;
 851:Drivers/STM32WBxx_HAL_Driver/Src/stm32wbxx_hal_dma.c **** 
 852:Drivers/STM32WBxx_HAL_Driver/Src/stm32wbxx_hal_dma.c ****   /* Process locked */
 853:Drivers/STM32WBxx_HAL_Driver/Src/stm32wbxx_hal_dma.c ****   __HAL_LOCK(hdma);
 854:Drivers/STM32WBxx_HAL_Driver/Src/stm32wbxx_hal_dma.c **** 
 855:Drivers/STM32WBxx_HAL_Driver/Src/stm32wbxx_hal_dma.c ****   if (HAL_DMA_STATE_READY == hdma->State)
 856:Drivers/STM32WBxx_HAL_Driver/Src/stm32wbxx_hal_dma.c ****   {
 857:Drivers/STM32WBxx_HAL_Driver/Src/stm32wbxx_hal_dma.c ****     switch (CallbackID)
 858:Drivers/STM32WBxx_HAL_Driver/Src/stm32wbxx_hal_dma.c ****     {
 859:Drivers/STM32WBxx_HAL_Driver/Src/stm32wbxx_hal_dma.c ****       case  HAL_DMA_XFER_CPLT_CB_ID:
 860:Drivers/STM32WBxx_HAL_Driver/Src/stm32wbxx_hal_dma.c ****         hdma->XferCpltCallback = pCallback;
 861:Drivers/STM32WBxx_HAL_Driver/Src/stm32wbxx_hal_dma.c ****         break;
 862:Drivers/STM32WBxx_HAL_Driver/Src/stm32wbxx_hal_dma.c **** 
 863:Drivers/STM32WBxx_HAL_Driver/Src/stm32wbxx_hal_dma.c ****       case  HAL_DMA_XFER_HALFCPLT_CB_ID:
 864:Drivers/STM32WBxx_HAL_Driver/Src/stm32wbxx_hal_dma.c ****         hdma->XferHalfCpltCallback = pCallback;
 865:Drivers/STM32WBxx_HAL_Driver/Src/stm32wbxx_hal_dma.c ****         break;
 866:Drivers/STM32WBxx_HAL_Driver/Src/stm32wbxx_hal_dma.c **** 
 867:Drivers/STM32WBxx_HAL_Driver/Src/stm32wbxx_hal_dma.c ****       case  HAL_DMA_XFER_ERROR_CB_ID:
 868:Drivers/STM32WBxx_HAL_Driver/Src/stm32wbxx_hal_dma.c ****         hdma->XferErrorCallback = pCallback;
 869:Drivers/STM32WBxx_HAL_Driver/Src/stm32wbxx_hal_dma.c ****         break;
 870:Drivers/STM32WBxx_HAL_Driver/Src/stm32wbxx_hal_dma.c **** 
 871:Drivers/STM32WBxx_HAL_Driver/Src/stm32wbxx_hal_dma.c ****       case  HAL_DMA_XFER_ABORT_CB_ID:
 872:Drivers/STM32WBxx_HAL_Driver/Src/stm32wbxx_hal_dma.c ****         hdma->XferAbortCallback = pCallback;
 873:Drivers/STM32WBxx_HAL_Driver/Src/stm32wbxx_hal_dma.c ****         break;
 874:Drivers/STM32WBxx_HAL_Driver/Src/stm32wbxx_hal_dma.c **** 
 875:Drivers/STM32WBxx_HAL_Driver/Src/stm32wbxx_hal_dma.c ****       default:
 876:Drivers/STM32WBxx_HAL_Driver/Src/stm32wbxx_hal_dma.c ****         status = HAL_ERROR;
 877:Drivers/STM32WBxx_HAL_Driver/Src/stm32wbxx_hal_dma.c ****         break;
 878:Drivers/STM32WBxx_HAL_Driver/Src/stm32wbxx_hal_dma.c ****     }
 879:Drivers/STM32WBxx_HAL_Driver/Src/stm32wbxx_hal_dma.c ****   }
 880:Drivers/STM32WBxx_HAL_Driver/Src/stm32wbxx_hal_dma.c ****   else
 881:Drivers/STM32WBxx_HAL_Driver/Src/stm32wbxx_hal_dma.c ****   {
 882:Drivers/STM32WBxx_HAL_Driver/Src/stm32wbxx_hal_dma.c ****     status = HAL_ERROR;
 883:Drivers/STM32WBxx_HAL_Driver/Src/stm32wbxx_hal_dma.c ****   }
 884:Drivers/STM32WBxx_HAL_Driver/Src/stm32wbxx_hal_dma.c **** 
 885:Drivers/STM32WBxx_HAL_Driver/Src/stm32wbxx_hal_dma.c ****   /* Release Lock */
ARM GAS  C:\Users\Kevin\AppData\Local\Temp\ccg63WcD.s 			page 17


 886:Drivers/STM32WBxx_HAL_Driver/Src/stm32wbxx_hal_dma.c ****   __HAL_UNLOCK(hdma);
 887:Drivers/STM32WBxx_HAL_Driver/Src/stm32wbxx_hal_dma.c **** 
 888:Drivers/STM32WBxx_HAL_Driver/Src/stm32wbxx_hal_dma.c ****   return status;
 889:Drivers/STM32WBxx_HAL_Driver/Src/stm32wbxx_hal_dma.c **** }
 890:Drivers/STM32WBxx_HAL_Driver/Src/stm32wbxx_hal_dma.c **** 
 891:Drivers/STM32WBxx_HAL_Driver/Src/stm32wbxx_hal_dma.c **** /**
 892:Drivers/STM32WBxx_HAL_Driver/Src/stm32wbxx_hal_dma.c ****   * @brief  UnRegister callbacks
 893:Drivers/STM32WBxx_HAL_Driver/Src/stm32wbxx_hal_dma.c ****   * @param hdma Pointer to a DMA_HandleTypeDef structure that contains
 894:Drivers/STM32WBxx_HAL_Driver/Src/stm32wbxx_hal_dma.c ****   *                               the configuration information for the specified DMA Channel.
 895:Drivers/STM32WBxx_HAL_Driver/Src/stm32wbxx_hal_dma.c ****   * @param CallbackID User Callback identifier
 896:Drivers/STM32WBxx_HAL_Driver/Src/stm32wbxx_hal_dma.c ****   *                               a HAL_DMA_CallbackIDTypeDef ENUM as parameter.
 897:Drivers/STM32WBxx_HAL_Driver/Src/stm32wbxx_hal_dma.c ****   * @retval HAL status
 898:Drivers/STM32WBxx_HAL_Driver/Src/stm32wbxx_hal_dma.c ****   */
 899:Drivers/STM32WBxx_HAL_Driver/Src/stm32wbxx_hal_dma.c **** HAL_StatusTypeDef HAL_DMA_UnRegisterCallback(DMA_HandleTypeDef *hdma, HAL_DMA_CallbackIDTypeDef Cal
 900:Drivers/STM32WBxx_HAL_Driver/Src/stm32wbxx_hal_dma.c **** {
 901:Drivers/STM32WBxx_HAL_Driver/Src/stm32wbxx_hal_dma.c ****   HAL_StatusTypeDef status = HAL_OK;
 902:Drivers/STM32WBxx_HAL_Driver/Src/stm32wbxx_hal_dma.c **** 
 903:Drivers/STM32WBxx_HAL_Driver/Src/stm32wbxx_hal_dma.c ****   /* Process locked */
 904:Drivers/STM32WBxx_HAL_Driver/Src/stm32wbxx_hal_dma.c ****   __HAL_LOCK(hdma);
 905:Drivers/STM32WBxx_HAL_Driver/Src/stm32wbxx_hal_dma.c **** 
 906:Drivers/STM32WBxx_HAL_Driver/Src/stm32wbxx_hal_dma.c ****   if (HAL_DMA_STATE_READY == hdma->State)
 907:Drivers/STM32WBxx_HAL_Driver/Src/stm32wbxx_hal_dma.c ****   {
 908:Drivers/STM32WBxx_HAL_Driver/Src/stm32wbxx_hal_dma.c ****     switch (CallbackID)
 909:Drivers/STM32WBxx_HAL_Driver/Src/stm32wbxx_hal_dma.c ****     {
 910:Drivers/STM32WBxx_HAL_Driver/Src/stm32wbxx_hal_dma.c ****       case  HAL_DMA_XFER_CPLT_CB_ID:
 911:Drivers/STM32WBxx_HAL_Driver/Src/stm32wbxx_hal_dma.c ****         hdma->XferCpltCallback = NULL;
 912:Drivers/STM32WBxx_HAL_Driver/Src/stm32wbxx_hal_dma.c ****         break;
 913:Drivers/STM32WBxx_HAL_Driver/Src/stm32wbxx_hal_dma.c **** 
 914:Drivers/STM32WBxx_HAL_Driver/Src/stm32wbxx_hal_dma.c ****       case  HAL_DMA_XFER_HALFCPLT_CB_ID:
 915:Drivers/STM32WBxx_HAL_Driver/Src/stm32wbxx_hal_dma.c ****         hdma->XferHalfCpltCallback = NULL;
 916:Drivers/STM32WBxx_HAL_Driver/Src/stm32wbxx_hal_dma.c ****         break;
 917:Drivers/STM32WBxx_HAL_Driver/Src/stm32wbxx_hal_dma.c **** 
 918:Drivers/STM32WBxx_HAL_Driver/Src/stm32wbxx_hal_dma.c ****       case  HAL_DMA_XFER_ERROR_CB_ID:
 919:Drivers/STM32WBxx_HAL_Driver/Src/stm32wbxx_hal_dma.c ****         hdma->XferErrorCallback = NULL;
 920:Drivers/STM32WBxx_HAL_Driver/Src/stm32wbxx_hal_dma.c ****         break;
 921:Drivers/STM32WBxx_HAL_Driver/Src/stm32wbxx_hal_dma.c **** 
 922:Drivers/STM32WBxx_HAL_Driver/Src/stm32wbxx_hal_dma.c ****       case  HAL_DMA_XFER_ABORT_CB_ID:
 923:Drivers/STM32WBxx_HAL_Driver/Src/stm32wbxx_hal_dma.c ****         hdma->XferAbortCallback = NULL;
 924:Drivers/STM32WBxx_HAL_Driver/Src/stm32wbxx_hal_dma.c ****         break;
 925:Drivers/STM32WBxx_HAL_Driver/Src/stm32wbxx_hal_dma.c **** 
 926:Drivers/STM32WBxx_HAL_Driver/Src/stm32wbxx_hal_dma.c ****       case   HAL_DMA_XFER_ALL_CB_ID:
 927:Drivers/STM32WBxx_HAL_Driver/Src/stm32wbxx_hal_dma.c ****         hdma->XferCpltCallback = NULL;
 928:Drivers/STM32WBxx_HAL_Driver/Src/stm32wbxx_hal_dma.c ****         hdma->XferHalfCpltCallback = NULL;
 929:Drivers/STM32WBxx_HAL_Driver/Src/stm32wbxx_hal_dma.c ****         hdma->XferErrorCallback = NULL;
 930:Drivers/STM32WBxx_HAL_Driver/Src/stm32wbxx_hal_dma.c ****         hdma->XferAbortCallback = NULL;
 931:Drivers/STM32WBxx_HAL_Driver/Src/stm32wbxx_hal_dma.c ****         break;
 932:Drivers/STM32WBxx_HAL_Driver/Src/stm32wbxx_hal_dma.c **** 
 933:Drivers/STM32WBxx_HAL_Driver/Src/stm32wbxx_hal_dma.c ****       default:
 934:Drivers/STM32WBxx_HAL_Driver/Src/stm32wbxx_hal_dma.c ****         status = HAL_ERROR;
 935:Drivers/STM32WBxx_HAL_Driver/Src/stm32wbxx_hal_dma.c ****         break;
 936:Drivers/STM32WBxx_HAL_Driver/Src/stm32wbxx_hal_dma.c ****     }
 937:Drivers/STM32WBxx_HAL_Driver/Src/stm32wbxx_hal_dma.c ****   }
 938:Drivers/STM32WBxx_HAL_Driver/Src/stm32wbxx_hal_dma.c ****   else
 939:Drivers/STM32WBxx_HAL_Driver/Src/stm32wbxx_hal_dma.c ****   {
 940:Drivers/STM32WBxx_HAL_Driver/Src/stm32wbxx_hal_dma.c ****     status = HAL_ERROR;
 941:Drivers/STM32WBxx_HAL_Driver/Src/stm32wbxx_hal_dma.c ****   }
 942:Drivers/STM32WBxx_HAL_Driver/Src/stm32wbxx_hal_dma.c **** 
ARM GAS  C:\Users\Kevin\AppData\Local\Temp\ccg63WcD.s 			page 18


 943:Drivers/STM32WBxx_HAL_Driver/Src/stm32wbxx_hal_dma.c ****   /* Release Lock */
 944:Drivers/STM32WBxx_HAL_Driver/Src/stm32wbxx_hal_dma.c ****   __HAL_UNLOCK(hdma);
 945:Drivers/STM32WBxx_HAL_Driver/Src/stm32wbxx_hal_dma.c **** 
 946:Drivers/STM32WBxx_HAL_Driver/Src/stm32wbxx_hal_dma.c ****   return status;
 947:Drivers/STM32WBxx_HAL_Driver/Src/stm32wbxx_hal_dma.c **** }
 948:Drivers/STM32WBxx_HAL_Driver/Src/stm32wbxx_hal_dma.c **** 
 949:Drivers/STM32WBxx_HAL_Driver/Src/stm32wbxx_hal_dma.c **** /**
 950:Drivers/STM32WBxx_HAL_Driver/Src/stm32wbxx_hal_dma.c ****   * @}
 951:Drivers/STM32WBxx_HAL_Driver/Src/stm32wbxx_hal_dma.c ****   */
 952:Drivers/STM32WBxx_HAL_Driver/Src/stm32wbxx_hal_dma.c **** 
 953:Drivers/STM32WBxx_HAL_Driver/Src/stm32wbxx_hal_dma.c **** 
 954:Drivers/STM32WBxx_HAL_Driver/Src/stm32wbxx_hal_dma.c **** 
 955:Drivers/STM32WBxx_HAL_Driver/Src/stm32wbxx_hal_dma.c **** /** @defgroup DMA_Exported_Functions_Group3 Peripheral State and Errors functions
 956:Drivers/STM32WBxx_HAL_Driver/Src/stm32wbxx_hal_dma.c ****   *  @brief    Peripheral State and Errors functions
 957:Drivers/STM32WBxx_HAL_Driver/Src/stm32wbxx_hal_dma.c ****   *
 958:Drivers/STM32WBxx_HAL_Driver/Src/stm32wbxx_hal_dma.c **** @verbatim
 959:Drivers/STM32WBxx_HAL_Driver/Src/stm32wbxx_hal_dma.c ****  ===============================================================================
 960:Drivers/STM32WBxx_HAL_Driver/Src/stm32wbxx_hal_dma.c ****             ##### Peripheral State and Errors functions #####
 961:Drivers/STM32WBxx_HAL_Driver/Src/stm32wbxx_hal_dma.c ****  ===============================================================================
 962:Drivers/STM32WBxx_HAL_Driver/Src/stm32wbxx_hal_dma.c ****     [..]
 963:Drivers/STM32WBxx_HAL_Driver/Src/stm32wbxx_hal_dma.c ****     This subsection provides functions allowing to
 964:Drivers/STM32WBxx_HAL_Driver/Src/stm32wbxx_hal_dma.c ****       (+) Check the DMA state
 965:Drivers/STM32WBxx_HAL_Driver/Src/stm32wbxx_hal_dma.c ****       (+) Get error code
 966:Drivers/STM32WBxx_HAL_Driver/Src/stm32wbxx_hal_dma.c **** 
 967:Drivers/STM32WBxx_HAL_Driver/Src/stm32wbxx_hal_dma.c **** @endverbatim
 968:Drivers/STM32WBxx_HAL_Driver/Src/stm32wbxx_hal_dma.c ****   * @{
 969:Drivers/STM32WBxx_HAL_Driver/Src/stm32wbxx_hal_dma.c ****   */
 970:Drivers/STM32WBxx_HAL_Driver/Src/stm32wbxx_hal_dma.c **** 
 971:Drivers/STM32WBxx_HAL_Driver/Src/stm32wbxx_hal_dma.c **** /**
 972:Drivers/STM32WBxx_HAL_Driver/Src/stm32wbxx_hal_dma.c ****   * @brief  Return the DMA handle state.
 973:Drivers/STM32WBxx_HAL_Driver/Src/stm32wbxx_hal_dma.c ****   * @param hdma Pointer to a DMA_HandleTypeDef structure that contains
 974:Drivers/STM32WBxx_HAL_Driver/Src/stm32wbxx_hal_dma.c ****   *               the configuration information for the specified DMA Channel.
 975:Drivers/STM32WBxx_HAL_Driver/Src/stm32wbxx_hal_dma.c ****   * @retval HAL state
 976:Drivers/STM32WBxx_HAL_Driver/Src/stm32wbxx_hal_dma.c ****   */
 977:Drivers/STM32WBxx_HAL_Driver/Src/stm32wbxx_hal_dma.c **** HAL_DMA_StateTypeDef HAL_DMA_GetState(DMA_HandleTypeDef *hdma)
 978:Drivers/STM32WBxx_HAL_Driver/Src/stm32wbxx_hal_dma.c **** {
 979:Drivers/STM32WBxx_HAL_Driver/Src/stm32wbxx_hal_dma.c ****   /* Return DMA handle state */
 980:Drivers/STM32WBxx_HAL_Driver/Src/stm32wbxx_hal_dma.c ****   return hdma->State;
 981:Drivers/STM32WBxx_HAL_Driver/Src/stm32wbxx_hal_dma.c **** }
 982:Drivers/STM32WBxx_HAL_Driver/Src/stm32wbxx_hal_dma.c **** 
 983:Drivers/STM32WBxx_HAL_Driver/Src/stm32wbxx_hal_dma.c **** /**
 984:Drivers/STM32WBxx_HAL_Driver/Src/stm32wbxx_hal_dma.c ****   * @brief  Return the DMA error code.
 985:Drivers/STM32WBxx_HAL_Driver/Src/stm32wbxx_hal_dma.c ****   * @param  hdma Pointer to a DMA_HandleTypeDef structure that contains
 986:Drivers/STM32WBxx_HAL_Driver/Src/stm32wbxx_hal_dma.c ****   *              the configuration information for the specified DMA Channel.
 987:Drivers/STM32WBxx_HAL_Driver/Src/stm32wbxx_hal_dma.c ****   * @retval DMA Error Code
 988:Drivers/STM32WBxx_HAL_Driver/Src/stm32wbxx_hal_dma.c ****   */
 989:Drivers/STM32WBxx_HAL_Driver/Src/stm32wbxx_hal_dma.c **** uint32_t HAL_DMA_GetError(DMA_HandleTypeDef *hdma)
 990:Drivers/STM32WBxx_HAL_Driver/Src/stm32wbxx_hal_dma.c **** {
 991:Drivers/STM32WBxx_HAL_Driver/Src/stm32wbxx_hal_dma.c ****   return hdma->ErrorCode;
 992:Drivers/STM32WBxx_HAL_Driver/Src/stm32wbxx_hal_dma.c **** }
 993:Drivers/STM32WBxx_HAL_Driver/Src/stm32wbxx_hal_dma.c **** 
 994:Drivers/STM32WBxx_HAL_Driver/Src/stm32wbxx_hal_dma.c **** /**
 995:Drivers/STM32WBxx_HAL_Driver/Src/stm32wbxx_hal_dma.c ****   * @}
 996:Drivers/STM32WBxx_HAL_Driver/Src/stm32wbxx_hal_dma.c ****   */
 997:Drivers/STM32WBxx_HAL_Driver/Src/stm32wbxx_hal_dma.c **** 
 998:Drivers/STM32WBxx_HAL_Driver/Src/stm32wbxx_hal_dma.c **** /**
 999:Drivers/STM32WBxx_HAL_Driver/Src/stm32wbxx_hal_dma.c ****   * @}
ARM GAS  C:\Users\Kevin\AppData\Local\Temp\ccg63WcD.s 			page 19


1000:Drivers/STM32WBxx_HAL_Driver/Src/stm32wbxx_hal_dma.c ****   */
1001:Drivers/STM32WBxx_HAL_Driver/Src/stm32wbxx_hal_dma.c **** 
1002:Drivers/STM32WBxx_HAL_Driver/Src/stm32wbxx_hal_dma.c **** /** @addtogroup DMA_Private_Functions
1003:Drivers/STM32WBxx_HAL_Driver/Src/stm32wbxx_hal_dma.c ****   * @{
1004:Drivers/STM32WBxx_HAL_Driver/Src/stm32wbxx_hal_dma.c ****   */
1005:Drivers/STM32WBxx_HAL_Driver/Src/stm32wbxx_hal_dma.c **** 
1006:Drivers/STM32WBxx_HAL_Driver/Src/stm32wbxx_hal_dma.c **** /**
1007:Drivers/STM32WBxx_HAL_Driver/Src/stm32wbxx_hal_dma.c ****   * @brief  Sets the DMA Transfer parameter.
1008:Drivers/STM32WBxx_HAL_Driver/Src/stm32wbxx_hal_dma.c ****   * @param hdma Pointer to a DMA_HandleTypeDef structure that contains
1009:Drivers/STM32WBxx_HAL_Driver/Src/stm32wbxx_hal_dma.c ****   *                     the configuration information for the specified DMA Channel.
1010:Drivers/STM32WBxx_HAL_Driver/Src/stm32wbxx_hal_dma.c ****   * @param SrcAddress The source memory Buffer address
1011:Drivers/STM32WBxx_HAL_Driver/Src/stm32wbxx_hal_dma.c ****   * @param DstAddress The destination memory Buffer address
1012:Drivers/STM32WBxx_HAL_Driver/Src/stm32wbxx_hal_dma.c ****   * @param DataLength The length of data to be transferred from source to destination
1013:Drivers/STM32WBxx_HAL_Driver/Src/stm32wbxx_hal_dma.c ****   * @retval HAL status
1014:Drivers/STM32WBxx_HAL_Driver/Src/stm32wbxx_hal_dma.c ****   */
1015:Drivers/STM32WBxx_HAL_Driver/Src/stm32wbxx_hal_dma.c **** static void DMA_SetConfig(DMA_HandleTypeDef *hdma, uint32_t SrcAddress, uint32_t DstAddress, uint32
1016:Drivers/STM32WBxx_HAL_Driver/Src/stm32wbxx_hal_dma.c **** {
  29              		.loc 1 1016 1 view -0
  30              		.cfi_startproc
  31              		@ args = 0, pretend = 0, frame = 0
  32              		@ frame_needed = 0, uses_anonymous_args = 0
  33              		@ link register save eliminated.
  34              		.loc 1 1016 1 is_stmt 0 view .LVU1
  35 0000 30B4     		push	{r4, r5}
  36              		.cfi_def_cfa_offset 8
  37              		.cfi_offset 4, -8
  38              		.cfi_offset 5, -4
1017:Drivers/STM32WBxx_HAL_Driver/Src/stm32wbxx_hal_dma.c ****   /* Clear the DMAMUX synchro overrun flag */
1018:Drivers/STM32WBxx_HAL_Driver/Src/stm32wbxx_hal_dma.c ****   hdma->DMAmuxChannelStatus->CFR = hdma->DMAmuxChannelStatusMask;
  39              		.loc 1 1018 3 is_stmt 1 view .LVU2
  40              		.loc 1 1018 7 is_stmt 0 view .LVU3
  41 0002 C46C     		ldr	r4, [r0, #76]
  42              		.loc 1 1018 34 view .LVU4
  43 0004 056D     		ldr	r5, [r0, #80]
  44 0006 6560     		str	r5, [r4, #4]
1019:Drivers/STM32WBxx_HAL_Driver/Src/stm32wbxx_hal_dma.c **** 
1020:Drivers/STM32WBxx_HAL_Driver/Src/stm32wbxx_hal_dma.c ****   if (hdma->DMAmuxRequestGen != 0U)
  45              		.loc 1 1020 3 is_stmt 1 view .LVU5
  46              		.loc 1 1020 11 is_stmt 0 view .LVU6
  47 0008 446D     		ldr	r4, [r0, #84]
  48              		.loc 1 1020 6 view .LVU7
  49 000a 14B1     		cbz	r4, .L2
1021:Drivers/STM32WBxx_HAL_Driver/Src/stm32wbxx_hal_dma.c ****   {
1022:Drivers/STM32WBxx_HAL_Driver/Src/stm32wbxx_hal_dma.c ****     /* Clear the DMAMUX request generator overrun flag */
1023:Drivers/STM32WBxx_HAL_Driver/Src/stm32wbxx_hal_dma.c ****     hdma->DMAmuxRequestGenStatus->RGCFR = hdma->DMAmuxRequestGenStatusMask;
  50              		.loc 1 1023 5 is_stmt 1 view .LVU8
  51              		.loc 1 1023 9 is_stmt 0 view .LVU9
  52 000c 846D     		ldr	r4, [r0, #88]
  53              		.loc 1 1023 41 view .LVU10
  54 000e C56D     		ldr	r5, [r0, #92]
  55 0010 6560     		str	r5, [r4, #4]
  56              	.L2:
1024:Drivers/STM32WBxx_HAL_Driver/Src/stm32wbxx_hal_dma.c ****   }
1025:Drivers/STM32WBxx_HAL_Driver/Src/stm32wbxx_hal_dma.c **** 
1026:Drivers/STM32WBxx_HAL_Driver/Src/stm32wbxx_hal_dma.c ****   /* Clear all flags */
1027:Drivers/STM32WBxx_HAL_Driver/Src/stm32wbxx_hal_dma.c ****   hdma->DmaBaseAddress->IFCR = (DMA_ISR_GIF1 << (hdma->ChannelIndex & 0x1cU));
  57              		.loc 1 1027 3 is_stmt 1 view .LVU11
ARM GAS  C:\Users\Kevin\AppData\Local\Temp\ccg63WcD.s 			page 20


  58              		.loc 1 1027 54 is_stmt 0 view .LVU12
  59 0012 446C     		ldr	r4, [r0, #68]
  60              		.loc 1 1027 69 view .LVU13
  61 0014 04F01C0C 		and	ip, r4, #28
  62              		.loc 1 1027 46 view .LVU14
  63 0018 0124     		movs	r4, #1
  64 001a 04FA0CF4 		lsl	r4, r4, ip
  65              		.loc 1 1027 30 view .LVU15
  66 001e 056C     		ldr	r5, [r0, #64]
  67 0020 6C60     		str	r4, [r5, #4]
1028:Drivers/STM32WBxx_HAL_Driver/Src/stm32wbxx_hal_dma.c **** 
1029:Drivers/STM32WBxx_HAL_Driver/Src/stm32wbxx_hal_dma.c ****   /* Configure DMA Channel data length */
1030:Drivers/STM32WBxx_HAL_Driver/Src/stm32wbxx_hal_dma.c ****   hdma->Instance->CNDTR = DataLength;
  68              		.loc 1 1030 3 is_stmt 1 view .LVU16
  69              		.loc 1 1030 7 is_stmt 0 view .LVU17
  70 0022 0468     		ldr	r4, [r0]
  71              		.loc 1 1030 25 view .LVU18
  72 0024 6360     		str	r3, [r4, #4]
1031:Drivers/STM32WBxx_HAL_Driver/Src/stm32wbxx_hal_dma.c **** 
1032:Drivers/STM32WBxx_HAL_Driver/Src/stm32wbxx_hal_dma.c ****   /* Memory to Peripheral */
1033:Drivers/STM32WBxx_HAL_Driver/Src/stm32wbxx_hal_dma.c ****   if ((hdma->Init.Direction) == DMA_MEMORY_TO_PERIPH)
  73              		.loc 1 1033 3 is_stmt 1 view .LVU19
  74              		.loc 1 1033 18 is_stmt 0 view .LVU20
  75 0026 8368     		ldr	r3, [r0, #8]
  76              	.LVL1:
  77              		.loc 1 1033 6 view .LVU21
  78 0028 102B     		cmp	r3, #16
  79 002a 05D0     		beq	.L6
1034:Drivers/STM32WBxx_HAL_Driver/Src/stm32wbxx_hal_dma.c ****   {
1035:Drivers/STM32WBxx_HAL_Driver/Src/stm32wbxx_hal_dma.c ****     /* Configure DMA Channel destination address */
1036:Drivers/STM32WBxx_HAL_Driver/Src/stm32wbxx_hal_dma.c ****     hdma->Instance->CPAR = DstAddress;
1037:Drivers/STM32WBxx_HAL_Driver/Src/stm32wbxx_hal_dma.c **** 
1038:Drivers/STM32WBxx_HAL_Driver/Src/stm32wbxx_hal_dma.c ****     /* Configure DMA Channel source address */
1039:Drivers/STM32WBxx_HAL_Driver/Src/stm32wbxx_hal_dma.c ****     hdma->Instance->CMAR = SrcAddress;
1040:Drivers/STM32WBxx_HAL_Driver/Src/stm32wbxx_hal_dma.c ****   }
1041:Drivers/STM32WBxx_HAL_Driver/Src/stm32wbxx_hal_dma.c ****   /* Peripheral to Memory */
1042:Drivers/STM32WBxx_HAL_Driver/Src/stm32wbxx_hal_dma.c ****   else
1043:Drivers/STM32WBxx_HAL_Driver/Src/stm32wbxx_hal_dma.c ****   {
1044:Drivers/STM32WBxx_HAL_Driver/Src/stm32wbxx_hal_dma.c ****     /* Configure DMA Channel source address */
1045:Drivers/STM32WBxx_HAL_Driver/Src/stm32wbxx_hal_dma.c ****     hdma->Instance->CPAR = SrcAddress;
  80              		.loc 1 1045 5 is_stmt 1 view .LVU22
  81              		.loc 1 1045 9 is_stmt 0 view .LVU23
  82 002c 0368     		ldr	r3, [r0]
  83              		.loc 1 1045 26 view .LVU24
  84 002e 9960     		str	r1, [r3, #8]
  85              	.LVL2:
1046:Drivers/STM32WBxx_HAL_Driver/Src/stm32wbxx_hal_dma.c **** 
1047:Drivers/STM32WBxx_HAL_Driver/Src/stm32wbxx_hal_dma.c ****     /* Configure DMA Channel destination address */
1048:Drivers/STM32WBxx_HAL_Driver/Src/stm32wbxx_hal_dma.c ****     hdma->Instance->CMAR = DstAddress;
  86              		.loc 1 1048 5 is_stmt 1 view .LVU25
  87              		.loc 1 1048 9 is_stmt 0 view .LVU26
  88 0030 0368     		ldr	r3, [r0]
  89              		.loc 1 1048 26 view .LVU27
  90 0032 DA60     		str	r2, [r3, #12]
  91              	.L1:
1049:Drivers/STM32WBxx_HAL_Driver/Src/stm32wbxx_hal_dma.c ****   }
1050:Drivers/STM32WBxx_HAL_Driver/Src/stm32wbxx_hal_dma.c **** }
ARM GAS  C:\Users\Kevin\AppData\Local\Temp\ccg63WcD.s 			page 21


  92              		.loc 1 1050 1 view .LVU28
  93 0034 30BC     		pop	{r4, r5}
  94              		.cfi_remember_state
  95              		.cfi_restore 5
  96              		.cfi_restore 4
  97              		.cfi_def_cfa_offset 0
  98 0036 7047     		bx	lr
  99              	.LVL3:
 100              	.L6:
 101              		.cfi_restore_state
1036:Drivers/STM32WBxx_HAL_Driver/Src/stm32wbxx_hal_dma.c **** 
 102              		.loc 1 1036 5 is_stmt 1 view .LVU29
1036:Drivers/STM32WBxx_HAL_Driver/Src/stm32wbxx_hal_dma.c **** 
 103              		.loc 1 1036 9 is_stmt 0 view .LVU30
 104 0038 0368     		ldr	r3, [r0]
1036:Drivers/STM32WBxx_HAL_Driver/Src/stm32wbxx_hal_dma.c **** 
 105              		.loc 1 1036 26 view .LVU31
 106 003a 9A60     		str	r2, [r3, #8]
 107              	.LVL4:
1039:Drivers/STM32WBxx_HAL_Driver/Src/stm32wbxx_hal_dma.c ****   }
 108              		.loc 1 1039 5 is_stmt 1 view .LVU32
1039:Drivers/STM32WBxx_HAL_Driver/Src/stm32wbxx_hal_dma.c ****   }
 109              		.loc 1 1039 9 is_stmt 0 view .LVU33
 110 003c 0368     		ldr	r3, [r0]
1039:Drivers/STM32WBxx_HAL_Driver/Src/stm32wbxx_hal_dma.c ****   }
 111              		.loc 1 1039 26 view .LVU34
 112 003e D960     		str	r1, [r3, #12]
 113 0040 F8E7     		b	.L1
 114              		.cfi_endproc
 115              	.LFE962:
 117              		.section	.text.DMA_CalcDMAMUXChannelBaseAndMask,"ax",%progbits
 118              		.align	1
 119              		.syntax unified
 120              		.thumb
 121              		.thumb_func
 123              	DMA_CalcDMAMUXChannelBaseAndMask:
 124              	.LVL5:
 125              	.LFB963:
1051:Drivers/STM32WBxx_HAL_Driver/Src/stm32wbxx_hal_dma.c **** 
1052:Drivers/STM32WBxx_HAL_Driver/Src/stm32wbxx_hal_dma.c **** /**
1053:Drivers/STM32WBxx_HAL_Driver/Src/stm32wbxx_hal_dma.c ****   * @brief  Updates the DMA handle with the DMAMUX  channel and status mask depending on channel nu
1054:Drivers/STM32WBxx_HAL_Driver/Src/stm32wbxx_hal_dma.c ****   * @param  hdma Pointer to a DMA_HandleTypeDef structure that contains
1055:Drivers/STM32WBxx_HAL_Driver/Src/stm32wbxx_hal_dma.c ****   *                     the configuration information for the specified DMA Channel.
1056:Drivers/STM32WBxx_HAL_Driver/Src/stm32wbxx_hal_dma.c ****   * @retval None
1057:Drivers/STM32WBxx_HAL_Driver/Src/stm32wbxx_hal_dma.c ****   */
1058:Drivers/STM32WBxx_HAL_Driver/Src/stm32wbxx_hal_dma.c **** static void DMA_CalcDMAMUXChannelBaseAndMask(DMA_HandleTypeDef *hdma)
1059:Drivers/STM32WBxx_HAL_Driver/Src/stm32wbxx_hal_dma.c **** {
 126              		.loc 1 1059 1 is_stmt 1 view -0
 127              		.cfi_startproc
 128              		@ args = 0, pretend = 0, frame = 0
 129              		@ frame_needed = 0, uses_anonymous_args = 0
 130              		@ link register save eliminated.
1060:Drivers/STM32WBxx_HAL_Driver/Src/stm32wbxx_hal_dma.c ****   uint32_t channel_number;
 131              		.loc 1 1060 3 view .LVU36
1061:Drivers/STM32WBxx_HAL_Driver/Src/stm32wbxx_hal_dma.c **** 
1062:Drivers/STM32WBxx_HAL_Driver/Src/stm32wbxx_hal_dma.c ****   /* check if instance is not outside the DMA channel range */
1063:Drivers/STM32WBxx_HAL_Driver/Src/stm32wbxx_hal_dma.c **** #if defined(DMA2)
ARM GAS  C:\Users\Kevin\AppData\Local\Temp\ccg63WcD.s 			page 22


1064:Drivers/STM32WBxx_HAL_Driver/Src/stm32wbxx_hal_dma.c ****   if ((uint32_t)hdma->Instance < (uint32_t)DMA2_Channel1)
 132              		.loc 1 1064 3 view .LVU37
 133              		.loc 1 1064 21 is_stmt 0 view .LVU38
 134 0000 0368     		ldr	r3, [r0]
 135              		.loc 1 1064 6 view .LVU39
 136 0002 104A     		ldr	r2, .L10
 137 0004 9342     		cmp	r3, r2
 138 0006 15D8     		bhi	.L8
1065:Drivers/STM32WBxx_HAL_Driver/Src/stm32wbxx_hal_dma.c ****   {
1066:Drivers/STM32WBxx_HAL_Driver/Src/stm32wbxx_hal_dma.c ****     /* DMA1 */
1067:Drivers/STM32WBxx_HAL_Driver/Src/stm32wbxx_hal_dma.c ****     hdma->DMAmuxChannel = (DMAMUX1_Channel0 + (hdma->ChannelIndex >> 2U));
 139              		.loc 1 1067 5 is_stmt 1 view .LVU40
 140              		.loc 1 1067 52 is_stmt 0 view .LVU41
 141 0008 426C     		ldr	r2, [r0, #68]
 142              		.loc 1 1067 45 view .LVU42
 143 000a 22F00302 		bic	r2, r2, #3
 144 000e 02F18042 		add	r2, r2, #1073741824
 145 0012 02F50232 		add	r2, r2, #133120
 146              		.loc 1 1067 25 view .LVU43
 147 0016 8264     		str	r2, [r0, #72]
 148              	.L9:
1068:Drivers/STM32WBxx_HAL_Driver/Src/stm32wbxx_hal_dma.c ****   }
1069:Drivers/STM32WBxx_HAL_Driver/Src/stm32wbxx_hal_dma.c ****   else
1070:Drivers/STM32WBxx_HAL_Driver/Src/stm32wbxx_hal_dma.c ****   {
1071:Drivers/STM32WBxx_HAL_Driver/Src/stm32wbxx_hal_dma.c ****     /* DMA2 */
1072:Drivers/STM32WBxx_HAL_Driver/Src/stm32wbxx_hal_dma.c ****     hdma->DMAmuxChannel = (DMAMUX1_Channel7 + (hdma->ChannelIndex >> 2U));
1073:Drivers/STM32WBxx_HAL_Driver/Src/stm32wbxx_hal_dma.c ****   }
1074:Drivers/STM32WBxx_HAL_Driver/Src/stm32wbxx_hal_dma.c **** #else
1075:Drivers/STM32WBxx_HAL_Driver/Src/stm32wbxx_hal_dma.c ****   /* DMA1 */
1076:Drivers/STM32WBxx_HAL_Driver/Src/stm32wbxx_hal_dma.c ****   hdma->DMAmuxChannel = (DMAMUX1_Channel0 + (hdma->ChannelIndex >> 2U));
1077:Drivers/STM32WBxx_HAL_Driver/Src/stm32wbxx_hal_dma.c **** #endif /* DMA2 */
1078:Drivers/STM32WBxx_HAL_Driver/Src/stm32wbxx_hal_dma.c ****   channel_number = (((uint32_t)hdma->Instance & 0xFFU) - 8U) / 20U;
 149              		.loc 1 1078 3 is_stmt 1 view .LVU44
 150              		.loc 1 1078 47 is_stmt 0 view .LVU45
 151 0018 DBB2     		uxtb	r3, r3
 152              		.loc 1 1078 56 view .LVU46
 153 001a 083B     		subs	r3, r3, #8
 154              		.loc 1 1078 18 view .LVU47
 155 001c 0A4A     		ldr	r2, .L10+4
 156 001e A2FB0323 		umull	r2, r3, r2, r3
 157              	.LVL6:
1079:Drivers/STM32WBxx_HAL_Driver/Src/stm32wbxx_hal_dma.c ****   hdma->DMAmuxChannelStatus = DMAMUX1_ChannelStatus;
 158              		.loc 1 1079 3 is_stmt 1 view .LVU48
 159              		.loc 1 1079 29 is_stmt 0 view .LVU49
 160 0022 0A4A     		ldr	r2, .L10+8
 161 0024 C264     		str	r2, [r0, #76]
1080:Drivers/STM32WBxx_HAL_Driver/Src/stm32wbxx_hal_dma.c **** 
1081:Drivers/STM32WBxx_HAL_Driver/Src/stm32wbxx_hal_dma.c ****   /* Initialize the field DMAmuxChannelStatusMask with the corresponding index of the DMAMUX channe
1082:Drivers/STM32WBxx_HAL_Driver/Src/stm32wbxx_hal_dma.c ****   hdma->DMAmuxChannelStatusMask = 1UL << (channel_number & 0x1FU);
 162              		.loc 1 1082 3 is_stmt 1 view .LVU50
 163              		.loc 1 1082 58 is_stmt 0 view .LVU51
 164 0026 C3F30413 		ubfx	r3, r3, #4, #5
 165              	.LVL7:
 166              		.loc 1 1082 39 view .LVU52
 167 002a 0122     		movs	r2, #1
 168 002c 02FA03F3 		lsl	r3, r2, r3
 169              		.loc 1 1082 33 view .LVU53
ARM GAS  C:\Users\Kevin\AppData\Local\Temp\ccg63WcD.s 			page 23


 170 0030 0365     		str	r3, [r0, #80]
1083:Drivers/STM32WBxx_HAL_Driver/Src/stm32wbxx_hal_dma.c **** }
 171              		.loc 1 1083 1 view .LVU54
 172 0032 7047     		bx	lr
 173              	.LVL8:
 174              	.L8:
1072:Drivers/STM32WBxx_HAL_Driver/Src/stm32wbxx_hal_dma.c ****   }
 175              		.loc 1 1072 5 is_stmt 1 view .LVU55
1072:Drivers/STM32WBxx_HAL_Driver/Src/stm32wbxx_hal_dma.c ****   }
 176              		.loc 1 1072 52 is_stmt 0 view .LVU56
 177 0034 426C     		ldr	r2, [r0, #68]
1072:Drivers/STM32WBxx_HAL_Driver/Src/stm32wbxx_hal_dma.c ****   }
 178              		.loc 1 1072 45 view .LVU57
 179 0036 22F00301 		bic	r1, r2, #3
 180 003a 054A     		ldr	r2, .L10+12
 181 003c 0A44     		add	r2, r2, r1
1072:Drivers/STM32WBxx_HAL_Driver/Src/stm32wbxx_hal_dma.c ****   }
 182              		.loc 1 1072 25 view .LVU58
 183 003e 8264     		str	r2, [r0, #72]
 184 0040 EAE7     		b	.L9
 185              	.L11:
 186 0042 00BF     		.align	2
 187              	.L10:
 188 0044 07040240 		.word	1073873927
 189 0048 CDCCCCCC 		.word	-858993459
 190 004c 80080240 		.word	1073875072
 191 0050 1C080240 		.word	1073874972
 192              		.cfi_endproc
 193              	.LFE963:
 195              		.section	.text.DMA_CalcDMAMUXRequestGenBaseAndMask,"ax",%progbits
 196              		.align	1
 197              		.syntax unified
 198              		.thumb
 199              		.thumb_func
 201              	DMA_CalcDMAMUXRequestGenBaseAndMask:
 202              	.LVL9:
 203              	.LFB964:
1084:Drivers/STM32WBxx_HAL_Driver/Src/stm32wbxx_hal_dma.c **** 
1085:Drivers/STM32WBxx_HAL_Driver/Src/stm32wbxx_hal_dma.c **** /**
1086:Drivers/STM32WBxx_HAL_Driver/Src/stm32wbxx_hal_dma.c ****   * @brief  Updates the DMA handle with the DMAMUX  request generator params
1087:Drivers/STM32WBxx_HAL_Driver/Src/stm32wbxx_hal_dma.c ****   * @param  hdma Pointer to a DMA_HandleTypeDef structure that contains
1088:Drivers/STM32WBxx_HAL_Driver/Src/stm32wbxx_hal_dma.c ****   *                     the configuration information for the specified DMA Channel.
1089:Drivers/STM32WBxx_HAL_Driver/Src/stm32wbxx_hal_dma.c ****   * @retval None
1090:Drivers/STM32WBxx_HAL_Driver/Src/stm32wbxx_hal_dma.c ****   */
1091:Drivers/STM32WBxx_HAL_Driver/Src/stm32wbxx_hal_dma.c **** 
1092:Drivers/STM32WBxx_HAL_Driver/Src/stm32wbxx_hal_dma.c **** static void DMA_CalcDMAMUXRequestGenBaseAndMask(DMA_HandleTypeDef *hdma)
1093:Drivers/STM32WBxx_HAL_Driver/Src/stm32wbxx_hal_dma.c **** {
 204              		.loc 1 1093 1 is_stmt 1 view -0
 205              		.cfi_startproc
 206              		@ args = 0, pretend = 0, frame = 0
 207              		@ frame_needed = 0, uses_anonymous_args = 0
 208              		@ link register save eliminated.
1094:Drivers/STM32WBxx_HAL_Driver/Src/stm32wbxx_hal_dma.c ****   uint32_t request =  hdma->Init.Request & DMAMUX_CxCR_DMAREQ_ID;
 209              		.loc 1 1094 3 view .LVU60
 210              		.loc 1 1094 33 is_stmt 0 view .LVU61
 211 0000 4368     		ldr	r3, [r0, #4]
 212              		.loc 1 1094 12 view .LVU62
ARM GAS  C:\Users\Kevin\AppData\Local\Temp\ccg63WcD.s 			page 24


 213 0002 03F03F03 		and	r3, r3, #63
 214              	.LVL10:
1095:Drivers/STM32WBxx_HAL_Driver/Src/stm32wbxx_hal_dma.c **** 
1096:Drivers/STM32WBxx_HAL_Driver/Src/stm32wbxx_hal_dma.c ****   /* DMA Channels are connected to DMAMUX1 request generator blocks*/
1097:Drivers/STM32WBxx_HAL_Driver/Src/stm32wbxx_hal_dma.c ****   hdma->DMAmuxRequestGen = (DMAMUX_RequestGen_TypeDef *)((uint32_t)(((uint32_t)DMAMUX1_RequestGener
 215              		.loc 1 1097 3 is_stmt 1 view .LVU63
 216              		.loc 1 1097 58 is_stmt 0 view .LVU64
 217 0006 074A     		ldr	r2, .L13
 218 0008 1A44     		add	r2, r2, r3
 219 000a 9200     		lsls	r2, r2, #2
 220              		.loc 1 1097 26 view .LVU65
 221 000c 4265     		str	r2, [r0, #84]
1098:Drivers/STM32WBxx_HAL_Driver/Src/stm32wbxx_hal_dma.c **** 
1099:Drivers/STM32WBxx_HAL_Driver/Src/stm32wbxx_hal_dma.c ****   hdma->DMAmuxRequestGenStatus = DMAMUX1_RequestGenStatus;
 222              		.loc 1 1099 3 is_stmt 1 view .LVU66
 223              		.loc 1 1099 32 is_stmt 0 view .LVU67
 224 000e 064A     		ldr	r2, .L13+4
 225 0010 8265     		str	r2, [r0, #88]
1100:Drivers/STM32WBxx_HAL_Driver/Src/stm32wbxx_hal_dma.c **** 
1101:Drivers/STM32WBxx_HAL_Driver/Src/stm32wbxx_hal_dma.c ****   /* here "Request" is either DMA_REQUEST_GENERATOR0 to DMA_REQUEST_GENERATOR3, i.e. <= 4*/
1102:Drivers/STM32WBxx_HAL_Driver/Src/stm32wbxx_hal_dma.c ****   hdma->DMAmuxRequestGenStatusMask = 1UL << ((request - 1U) & 0x3U);
 226              		.loc 1 1102 3 is_stmt 1 view .LVU68
 227              		.loc 1 1102 55 is_stmt 0 view .LVU69
 228 0012 013B     		subs	r3, r3, #1
 229              	.LVL11:
 230              		.loc 1 1102 61 view .LVU70
 231 0014 03F00303 		and	r3, r3, #3
 232              	.LVL12:
 233              		.loc 1 1102 42 view .LVU71
 234 0018 0122     		movs	r2, #1
 235 001a 02FA03F3 		lsl	r3, r2, r3
 236              		.loc 1 1102 36 view .LVU72
 237 001e C365     		str	r3, [r0, #92]
1103:Drivers/STM32WBxx_HAL_Driver/Src/stm32wbxx_hal_dma.c **** }
 238              		.loc 1 1103 1 view .LVU73
 239 0020 7047     		bx	lr
 240              	.L14:
 241 0022 00BF     		.align	2
 242              	.L13:
 243 0024 3F820010 		.word	268468799
 244 0028 40090240 		.word	1073875264
 245              		.cfi_endproc
 246              	.LFE964:
 248              		.section	.text.HAL_DMA_Init,"ax",%progbits
 249              		.align	1
 250              		.global	HAL_DMA_Init
 251              		.syntax unified
 252              		.thumb
 253              		.thumb_func
 255              	HAL_DMA_Init:
 256              	.LVL13:
 257              	.LFB950:
 152:Drivers/STM32WBxx_HAL_Driver/Src/stm32wbxx_hal_dma.c ****   uint32_t tmp;
 258              		.loc 1 152 1 is_stmt 1 view -0
 259              		.cfi_startproc
 260              		@ args = 0, pretend = 0, frame = 0
 261              		@ frame_needed = 0, uses_anonymous_args = 0
ARM GAS  C:\Users\Kevin\AppData\Local\Temp\ccg63WcD.s 			page 25


 153:Drivers/STM32WBxx_HAL_Driver/Src/stm32wbxx_hal_dma.c **** 
 262              		.loc 1 153 3 view .LVU75
 156:Drivers/STM32WBxx_HAL_Driver/Src/stm32wbxx_hal_dma.c ****   {
 263              		.loc 1 156 3 view .LVU76
 156:Drivers/STM32WBxx_HAL_Driver/Src/stm32wbxx_hal_dma.c ****   {
 264              		.loc 1 156 6 is_stmt 0 view .LVU77
 265 0000 0028     		cmp	r0, #0
 266 0002 5DD0     		beq	.L22
 152:Drivers/STM32WBxx_HAL_Driver/Src/stm32wbxx_hal_dma.c ****   uint32_t tmp;
 267              		.loc 1 152 1 view .LVU78
 268 0004 10B5     		push	{r4, lr}
 269              		.cfi_def_cfa_offset 8
 270              		.cfi_offset 4, -8
 271              		.cfi_offset 14, -4
 272 0006 0446     		mov	r4, r0
 162:Drivers/STM32WBxx_HAL_Driver/Src/stm32wbxx_hal_dma.c ****   assert_param(IS_DMA_DIRECTION(hdma->Init.Direction));
 273              		.loc 1 162 3 is_stmt 1 view .LVU79
 163:Drivers/STM32WBxx_HAL_Driver/Src/stm32wbxx_hal_dma.c ****   assert_param(IS_DMA_PERIPHERAL_INC_STATE(hdma->Init.PeriphInc));
 274              		.loc 1 163 3 view .LVU80
 164:Drivers/STM32WBxx_HAL_Driver/Src/stm32wbxx_hal_dma.c ****   assert_param(IS_DMA_MEMORY_INC_STATE(hdma->Init.MemInc));
 275              		.loc 1 164 3 view .LVU81
 165:Drivers/STM32WBxx_HAL_Driver/Src/stm32wbxx_hal_dma.c ****   assert_param(IS_DMA_PERIPHERAL_DATA_SIZE(hdma->Init.PeriphDataAlignment));
 276              		.loc 1 165 3 view .LVU82
 166:Drivers/STM32WBxx_HAL_Driver/Src/stm32wbxx_hal_dma.c ****   assert_param(IS_DMA_MEMORY_DATA_SIZE(hdma->Init.MemDataAlignment));
 277              		.loc 1 166 3 view .LVU83
 167:Drivers/STM32WBxx_HAL_Driver/Src/stm32wbxx_hal_dma.c ****   assert_param(IS_DMA_MODE(hdma->Init.Mode));
 278              		.loc 1 167 3 view .LVU84
 168:Drivers/STM32WBxx_HAL_Driver/Src/stm32wbxx_hal_dma.c ****   assert_param(IS_DMA_PRIORITY(hdma->Init.Priority));
 279              		.loc 1 168 3 view .LVU85
 169:Drivers/STM32WBxx_HAL_Driver/Src/stm32wbxx_hal_dma.c **** 
 280              		.loc 1 169 3 view .LVU86
 171:Drivers/STM32WBxx_HAL_Driver/Src/stm32wbxx_hal_dma.c **** 
 281              		.loc 1 171 3 view .LVU87
 175:Drivers/STM32WBxx_HAL_Driver/Src/stm32wbxx_hal_dma.c ****   {
 282              		.loc 1 175 3 view .LVU88
 175:Drivers/STM32WBxx_HAL_Driver/Src/stm32wbxx_hal_dma.c ****   {
 283              		.loc 1 175 22 is_stmt 0 view .LVU89
 284 0008 0168     		ldr	r1, [r0]
 175:Drivers/STM32WBxx_HAL_Driver/Src/stm32wbxx_hal_dma.c ****   {
 285              		.loc 1 175 6 view .LVU90
 286 000a 2E4B     		ldr	r3, .L29
 287 000c 9942     		cmp	r1, r3
 288 000e 3FD8     		bhi	.L17
 178:Drivers/STM32WBxx_HAL_Driver/Src/stm32wbxx_hal_dma.c ****     hdma->DmaBaseAddress = DMA1;
 289              		.loc 1 178 5 is_stmt 1 view .LVU91
 178:Drivers/STM32WBxx_HAL_Driver/Src/stm32wbxx_hal_dma.c ****     hdma->DmaBaseAddress = DMA1;
 290              		.loc 1 178 53 is_stmt 0 view .LVU92
 291 0010 2D4B     		ldr	r3, .L29+4
 292 0012 0B44     		add	r3, r3, r1
 178:Drivers/STM32WBxx_HAL_Driver/Src/stm32wbxx_hal_dma.c ****     hdma->DmaBaseAddress = DMA1;
 293              		.loc 1 178 80 view .LVU93
 294 0014 2D4A     		ldr	r2, .L29+8
 295 0016 A2FB0323 		umull	r2, r3, r2, r3
 296 001a 1B09     		lsrs	r3, r3, #4
 178:Drivers/STM32WBxx_HAL_Driver/Src/stm32wbxx_hal_dma.c ****     hdma->DmaBaseAddress = DMA1;
 297              		.loc 1 178 135 view .LVU94
 298 001c 9B00     		lsls	r3, r3, #2
ARM GAS  C:\Users\Kevin\AppData\Local\Temp\ccg63WcD.s 			page 26


 178:Drivers/STM32WBxx_HAL_Driver/Src/stm32wbxx_hal_dma.c ****     hdma->DmaBaseAddress = DMA1;
 299              		.loc 1 178 24 view .LVU95
 300 001e 4364     		str	r3, [r0, #68]
 179:Drivers/STM32WBxx_HAL_Driver/Src/stm32wbxx_hal_dma.c ****   }
 301              		.loc 1 179 5 is_stmt 1 view .LVU96
 179:Drivers/STM32WBxx_HAL_Driver/Src/stm32wbxx_hal_dma.c ****   }
 302              		.loc 1 179 26 is_stmt 0 view .LVU97
 303 0020 2B4B     		ldr	r3, .L29+12
 304 0022 0364     		str	r3, [r0, #64]
 305              	.L18:
 194:Drivers/STM32WBxx_HAL_Driver/Src/stm32wbxx_hal_dma.c **** 
 306              		.loc 1 194 3 is_stmt 1 view .LVU98
 194:Drivers/STM32WBxx_HAL_Driver/Src/stm32wbxx_hal_dma.c **** 
 307              		.loc 1 194 15 is_stmt 0 view .LVU99
 308 0024 0223     		movs	r3, #2
 309 0026 84F82530 		strb	r3, [r4, #37]
 197:Drivers/STM32WBxx_HAL_Driver/Src/stm32wbxx_hal_dma.c **** 
 310              		.loc 1 197 3 is_stmt 1 view .LVU100
 197:Drivers/STM32WBxx_HAL_Driver/Src/stm32wbxx_hal_dma.c **** 
 311              		.loc 1 197 7 is_stmt 0 view .LVU101
 312 002a 0A68     		ldr	r2, [r1]
 313              	.LVL14:
 200:Drivers/STM32WBxx_HAL_Driver/Src/stm32wbxx_hal_dma.c ****                       DMA_CCR_MINC  | DMA_CCR_PINC   | DMA_CCR_CIRC   |
 314              		.loc 1 200 3 is_stmt 1 view .LVU102
 200:Drivers/STM32WBxx_HAL_Driver/Src/stm32wbxx_hal_dma.c ****                       DMA_CCR_MINC  | DMA_CCR_PINC   | DMA_CCR_CIRC   |
 315              		.loc 1 200 7 is_stmt 0 view .LVU103
 316 002c 22F4FF42 		bic	r2, r2, #32640
 317              	.LVL15:
 200:Drivers/STM32WBxx_HAL_Driver/Src/stm32wbxx_hal_dma.c ****                       DMA_CCR_MINC  | DMA_CCR_PINC   | DMA_CCR_CIRC   |
 318              		.loc 1 200 7 view .LVU104
 319 0030 22F07002 		bic	r2, r2, #112
 320              	.LVL16:
 205:Drivers/STM32WBxx_HAL_Driver/Src/stm32wbxx_hal_dma.c ****           hdma->Init.PeriphInc           | hdma->Init.MemInc           |
 321              		.loc 1 205 3 is_stmt 1 view .LVU105
 205:Drivers/STM32WBxx_HAL_Driver/Src/stm32wbxx_hal_dma.c ****           hdma->Init.PeriphInc           | hdma->Init.MemInc           |
 322              		.loc 1 205 21 is_stmt 0 view .LVU106
 323 0034 A368     		ldr	r3, [r4, #8]
 206:Drivers/STM32WBxx_HAL_Driver/Src/stm32wbxx_hal_dma.c ****           hdma->Init.PeriphDataAlignment | hdma->Init.MemDataAlignment |
 324              		.loc 1 206 21 view .LVU107
 325 0036 E068     		ldr	r0, [r4, #12]
 326              	.LVL17:
 205:Drivers/STM32WBxx_HAL_Driver/Src/stm32wbxx_hal_dma.c ****           hdma->Init.PeriphInc           | hdma->Init.MemInc           |
 327              		.loc 1 205 39 view .LVU108
 328 0038 0343     		orrs	r3, r3, r0
 206:Drivers/STM32WBxx_HAL_Driver/Src/stm32wbxx_hal_dma.c ****           hdma->Init.PeriphDataAlignment | hdma->Init.MemDataAlignment |
 329              		.loc 1 206 54 view .LVU109
 330 003a 2069     		ldr	r0, [r4, #16]
 206:Drivers/STM32WBxx_HAL_Driver/Src/stm32wbxx_hal_dma.c ****           hdma->Init.PeriphDataAlignment | hdma->Init.MemDataAlignment |
 331              		.loc 1 206 42 view .LVU110
 332 003c 0343     		orrs	r3, r3, r0
 207:Drivers/STM32WBxx_HAL_Driver/Src/stm32wbxx_hal_dma.c ****           hdma->Init.Mode                | hdma->Init.Priority;
 333              		.loc 1 207 21 view .LVU111
 334 003e 6069     		ldr	r0, [r4, #20]
 206:Drivers/STM32WBxx_HAL_Driver/Src/stm32wbxx_hal_dma.c ****           hdma->Init.PeriphDataAlignment | hdma->Init.MemDataAlignment |
 335              		.loc 1 206 72 view .LVU112
 336 0040 0343     		orrs	r3, r3, r0
 207:Drivers/STM32WBxx_HAL_Driver/Src/stm32wbxx_hal_dma.c ****           hdma->Init.Mode                | hdma->Init.Priority;
ARM GAS  C:\Users\Kevin\AppData\Local\Temp\ccg63WcD.s 			page 27


 337              		.loc 1 207 54 view .LVU113
 338 0042 A069     		ldr	r0, [r4, #24]
 207:Drivers/STM32WBxx_HAL_Driver/Src/stm32wbxx_hal_dma.c ****           hdma->Init.Mode                | hdma->Init.Priority;
 339              		.loc 1 207 42 view .LVU114
 340 0044 0343     		orrs	r3, r3, r0
 208:Drivers/STM32WBxx_HAL_Driver/Src/stm32wbxx_hal_dma.c **** 
 341              		.loc 1 208 21 view .LVU115
 342 0046 E069     		ldr	r0, [r4, #28]
 207:Drivers/STM32WBxx_HAL_Driver/Src/stm32wbxx_hal_dma.c ****           hdma->Init.Mode                | hdma->Init.Priority;
 343              		.loc 1 207 72 view .LVU116
 344 0048 0343     		orrs	r3, r3, r0
 208:Drivers/STM32WBxx_HAL_Driver/Src/stm32wbxx_hal_dma.c **** 
 345              		.loc 1 208 54 view .LVU117
 346 004a 206A     		ldr	r0, [r4, #32]
 208:Drivers/STM32WBxx_HAL_Driver/Src/stm32wbxx_hal_dma.c **** 
 347              		.loc 1 208 42 view .LVU118
 348 004c 0343     		orrs	r3, r3, r0
 205:Drivers/STM32WBxx_HAL_Driver/Src/stm32wbxx_hal_dma.c ****           hdma->Init.PeriphInc           | hdma->Init.MemInc           |
 349              		.loc 1 205 7 view .LVU119
 350 004e 1343     		orrs	r3, r3, r2
 351              	.LVL18:
 211:Drivers/STM32WBxx_HAL_Driver/Src/stm32wbxx_hal_dma.c **** 
 352              		.loc 1 211 3 is_stmt 1 view .LVU120
 211:Drivers/STM32WBxx_HAL_Driver/Src/stm32wbxx_hal_dma.c **** 
 353              		.loc 1 211 23 is_stmt 0 view .LVU121
 354 0050 0B60     		str	r3, [r1]
 216:Drivers/STM32WBxx_HAL_Driver/Src/stm32wbxx_hal_dma.c **** 
 355              		.loc 1 216 3 is_stmt 1 view .LVU122
 356 0052 2046     		mov	r0, r4
 357 0054 FFF7FEFF 		bl	DMA_CalcDMAMUXChannelBaseAndMask
 358              	.LVL19:
 218:Drivers/STM32WBxx_HAL_Driver/Src/stm32wbxx_hal_dma.c ****   {
 359              		.loc 1 218 3 view .LVU123
 218:Drivers/STM32WBxx_HAL_Driver/Src/stm32wbxx_hal_dma.c ****   {
 360              		.loc 1 218 17 is_stmt 0 view .LVU124
 361 0058 A368     		ldr	r3, [r4, #8]
 218:Drivers/STM32WBxx_HAL_Driver/Src/stm32wbxx_hal_dma.c ****   {
 362              		.loc 1 218 6 view .LVU125
 363 005a B3F5804F 		cmp	r3, #16384
 364 005e 22D0     		beq	.L27
 365              	.L19:
 225:Drivers/STM32WBxx_HAL_Driver/Src/stm32wbxx_hal_dma.c **** 
 366              		.loc 1 225 3 is_stmt 1 view .LVU126
 225:Drivers/STM32WBxx_HAL_Driver/Src/stm32wbxx_hal_dma.c **** 
 367              		.loc 1 225 41 is_stmt 0 view .LVU127
 368 0060 6368     		ldr	r3, [r4, #4]
 225:Drivers/STM32WBxx_HAL_Driver/Src/stm32wbxx_hal_dma.c **** 
 369              		.loc 1 225 7 view .LVU128
 370 0062 A26C     		ldr	r2, [r4, #72]
 225:Drivers/STM32WBxx_HAL_Driver/Src/stm32wbxx_hal_dma.c **** 
 371              		.loc 1 225 50 view .LVU129
 372 0064 03F03F03 		and	r3, r3, #63
 225:Drivers/STM32WBxx_HAL_Driver/Src/stm32wbxx_hal_dma.c **** 
 373              		.loc 1 225 28 view .LVU130
 374 0068 1360     		str	r3, [r2]
 228:Drivers/STM32WBxx_HAL_Driver/Src/stm32wbxx_hal_dma.c **** 
 375              		.loc 1 228 3 is_stmt 1 view .LVU131
ARM GAS  C:\Users\Kevin\AppData\Local\Temp\ccg63WcD.s 			page 28


 228:Drivers/STM32WBxx_HAL_Driver/Src/stm32wbxx_hal_dma.c **** 
 376              		.loc 1 228 7 is_stmt 0 view .LVU132
 377 006a E36C     		ldr	r3, [r4, #76]
 228:Drivers/STM32WBxx_HAL_Driver/Src/stm32wbxx_hal_dma.c **** 
 378              		.loc 1 228 40 view .LVU133
 379 006c 226D     		ldr	r2, [r4, #80]
 228:Drivers/STM32WBxx_HAL_Driver/Src/stm32wbxx_hal_dma.c **** 
 380              		.loc 1 228 34 view .LVU134
 381 006e 5A60     		str	r2, [r3, #4]
 230:Drivers/STM32WBxx_HAL_Driver/Src/stm32wbxx_hal_dma.c ****   {
 382              		.loc 1 230 3 is_stmt 1 view .LVU135
 230:Drivers/STM32WBxx_HAL_Driver/Src/stm32wbxx_hal_dma.c ****   {
 383              		.loc 1 230 19 is_stmt 0 view .LVU136
 384 0070 6368     		ldr	r3, [r4, #4]
 230:Drivers/STM32WBxx_HAL_Driver/Src/stm32wbxx_hal_dma.c ****   {
 385              		.loc 1 230 35 view .LVU137
 386 0072 013B     		subs	r3, r3, #1
 230:Drivers/STM32WBxx_HAL_Driver/Src/stm32wbxx_hal_dma.c ****   {
 387              		.loc 1 230 6 view .LVU138
 388 0074 032B     		cmp	r3, #3
 389 0076 19D9     		bls	.L28
 245:Drivers/STM32WBxx_HAL_Driver/Src/stm32wbxx_hal_dma.c ****     hdma->DMAmuxRequestGenStatus = 0U;
 390              		.loc 1 245 5 is_stmt 1 view .LVU139
 245:Drivers/STM32WBxx_HAL_Driver/Src/stm32wbxx_hal_dma.c ****     hdma->DMAmuxRequestGenStatus = 0U;
 391              		.loc 1 245 28 is_stmt 0 view .LVU140
 392 0078 0023     		movs	r3, #0
 393 007a 6365     		str	r3, [r4, #84]
 246:Drivers/STM32WBxx_HAL_Driver/Src/stm32wbxx_hal_dma.c ****     hdma->DMAmuxRequestGenStatusMask = 0U;
 394              		.loc 1 246 5 is_stmt 1 view .LVU141
 246:Drivers/STM32WBxx_HAL_Driver/Src/stm32wbxx_hal_dma.c ****     hdma->DMAmuxRequestGenStatusMask = 0U;
 395              		.loc 1 246 34 is_stmt 0 view .LVU142
 396 007c A365     		str	r3, [r4, #88]
 247:Drivers/STM32WBxx_HAL_Driver/Src/stm32wbxx_hal_dma.c ****   }
 397              		.loc 1 247 5 is_stmt 1 view .LVU143
 247:Drivers/STM32WBxx_HAL_Driver/Src/stm32wbxx_hal_dma.c ****   }
 398              		.loc 1 247 38 is_stmt 0 view .LVU144
 399 007e E365     		str	r3, [r4, #92]
 400              	.L21:
 251:Drivers/STM32WBxx_HAL_Driver/Src/stm32wbxx_hal_dma.c **** 
 401              		.loc 1 251 3 is_stmt 1 view .LVU145
 251:Drivers/STM32WBxx_HAL_Driver/Src/stm32wbxx_hal_dma.c **** 
 402              		.loc 1 251 19 is_stmt 0 view .LVU146
 403 0080 0020     		movs	r0, #0
 404 0082 E063     		str	r0, [r4, #60]
 254:Drivers/STM32WBxx_HAL_Driver/Src/stm32wbxx_hal_dma.c **** 
 405              		.loc 1 254 3 is_stmt 1 view .LVU147
 254:Drivers/STM32WBxx_HAL_Driver/Src/stm32wbxx_hal_dma.c **** 
 406              		.loc 1 254 16 is_stmt 0 view .LVU148
 407 0084 0123     		movs	r3, #1
 408 0086 84F82530 		strb	r3, [r4, #37]
 257:Drivers/STM32WBxx_HAL_Driver/Src/stm32wbxx_hal_dma.c **** 
 409              		.loc 1 257 3 is_stmt 1 view .LVU149
 257:Drivers/STM32WBxx_HAL_Driver/Src/stm32wbxx_hal_dma.c **** 
 410              		.loc 1 257 14 is_stmt 0 view .LVU150
 411 008a 84F82400 		strb	r0, [r4, #36]
 259:Drivers/STM32WBxx_HAL_Driver/Src/stm32wbxx_hal_dma.c **** }
 412              		.loc 1 259 3 is_stmt 1 view .LVU151
ARM GAS  C:\Users\Kevin\AppData\Local\Temp\ccg63WcD.s 			page 29


 260:Drivers/STM32WBxx_HAL_Driver/Src/stm32wbxx_hal_dma.c **** 
 413              		.loc 1 260 1 is_stmt 0 view .LVU152
 414 008e 10BD     		pop	{r4, pc}
 415              	.LVL20:
 416              	.L17:
 184:Drivers/STM32WBxx_HAL_Driver/Src/stm32wbxx_hal_dma.c ****     hdma->DmaBaseAddress = DMA2;
 417              		.loc 1 184 5 is_stmt 1 view .LVU153
 184:Drivers/STM32WBxx_HAL_Driver/Src/stm32wbxx_hal_dma.c ****     hdma->DmaBaseAddress = DMA2;
 418              		.loc 1 184 53 is_stmt 0 view .LVU154
 419 0090 104B     		ldr	r3, .L29+16
 420 0092 0B44     		add	r3, r3, r1
 184:Drivers/STM32WBxx_HAL_Driver/Src/stm32wbxx_hal_dma.c ****     hdma->DmaBaseAddress = DMA2;
 421              		.loc 1 184 80 view .LVU155
 422 0094 0D4A     		ldr	r2, .L29+8
 423 0096 A2FB0323 		umull	r2, r3, r2, r3
 424 009a 1B09     		lsrs	r3, r3, #4
 184:Drivers/STM32WBxx_HAL_Driver/Src/stm32wbxx_hal_dma.c ****     hdma->DmaBaseAddress = DMA2;
 425              		.loc 1 184 135 view .LVU156
 426 009c 9B00     		lsls	r3, r3, #2
 184:Drivers/STM32WBxx_HAL_Driver/Src/stm32wbxx_hal_dma.c ****     hdma->DmaBaseAddress = DMA2;
 427              		.loc 1 184 24 view .LVU157
 428 009e 4364     		str	r3, [r0, #68]
 185:Drivers/STM32WBxx_HAL_Driver/Src/stm32wbxx_hal_dma.c ****   }
 429              		.loc 1 185 5 is_stmt 1 view .LVU158
 185:Drivers/STM32WBxx_HAL_Driver/Src/stm32wbxx_hal_dma.c ****   }
 430              		.loc 1 185 26 is_stmt 0 view .LVU159
 431 00a0 0D4B     		ldr	r3, .L29+20
 432 00a2 0364     		str	r3, [r0, #64]
 433 00a4 BEE7     		b	.L18
 434              	.LVL21:
 435              	.L27:
 221:Drivers/STM32WBxx_HAL_Driver/Src/stm32wbxx_hal_dma.c ****   }
 436              		.loc 1 221 5 is_stmt 1 view .LVU160
 221:Drivers/STM32WBxx_HAL_Driver/Src/stm32wbxx_hal_dma.c ****   }
 437              		.loc 1 221 24 is_stmt 0 view .LVU161
 438 00a6 0023     		movs	r3, #0
 439 00a8 6360     		str	r3, [r4, #4]
 440 00aa D9E7     		b	.L19
 441              	.L28:
 235:Drivers/STM32WBxx_HAL_Driver/Src/stm32wbxx_hal_dma.c **** 
 442              		.loc 1 235 5 is_stmt 1 view .LVU162
 443 00ac 2046     		mov	r0, r4
 444 00ae FFF7FEFF 		bl	DMA_CalcDMAMUXRequestGenBaseAndMask
 445              	.LVL22:
 238:Drivers/STM32WBxx_HAL_Driver/Src/stm32wbxx_hal_dma.c **** 
 446              		.loc 1 238 5 view .LVU163
 238:Drivers/STM32WBxx_HAL_Driver/Src/stm32wbxx_hal_dma.c **** 
 447              		.loc 1 238 9 is_stmt 0 view .LVU164
 448 00b2 636D     		ldr	r3, [r4, #84]
 238:Drivers/STM32WBxx_HAL_Driver/Src/stm32wbxx_hal_dma.c **** 
 449              		.loc 1 238 34 view .LVU165
 450 00b4 0022     		movs	r2, #0
 451 00b6 1A60     		str	r2, [r3]
 241:Drivers/STM32WBxx_HAL_Driver/Src/stm32wbxx_hal_dma.c ****   }
 452              		.loc 1 241 5 is_stmt 1 view .LVU166
 241:Drivers/STM32WBxx_HAL_Driver/Src/stm32wbxx_hal_dma.c ****   }
 453              		.loc 1 241 9 is_stmt 0 view .LVU167
ARM GAS  C:\Users\Kevin\AppData\Local\Temp\ccg63WcD.s 			page 30


 454 00b8 A36D     		ldr	r3, [r4, #88]
 241:Drivers/STM32WBxx_HAL_Driver/Src/stm32wbxx_hal_dma.c ****   }
 455              		.loc 1 241 47 view .LVU168
 456 00ba E26D     		ldr	r2, [r4, #92]
 241:Drivers/STM32WBxx_HAL_Driver/Src/stm32wbxx_hal_dma.c ****   }
 457              		.loc 1 241 41 view .LVU169
 458 00bc 5A60     		str	r2, [r3, #4]
 459 00be DFE7     		b	.L21
 460              	.LVL23:
 461              	.L22:
 462              		.cfi_def_cfa_offset 0
 463              		.cfi_restore 4
 464              		.cfi_restore 14
 158:Drivers/STM32WBxx_HAL_Driver/Src/stm32wbxx_hal_dma.c ****   }
 465              		.loc 1 158 12 view .LVU170
 466 00c0 0120     		movs	r0, #1
 467              	.LVL24:
 260:Drivers/STM32WBxx_HAL_Driver/Src/stm32wbxx_hal_dma.c **** 
 468              		.loc 1 260 1 view .LVU171
 469 00c2 7047     		bx	lr
 470              	.L30:
 471              		.align	2
 472              	.L29:
 473 00c4 07040240 		.word	1073873927
 474 00c8 F8FFFDBF 		.word	-1073872904
 475 00cc CDCCCCCC 		.word	-858993459
 476 00d0 00000240 		.word	1073872896
 477 00d4 F8FBFDBF 		.word	-1073873928
 478 00d8 00040240 		.word	1073873920
 479              		.cfi_endproc
 480              	.LFE950:
 482              		.section	.text.HAL_DMA_DeInit,"ax",%progbits
 483              		.align	1
 484              		.global	HAL_DMA_DeInit
 485              		.syntax unified
 486              		.thumb
 487              		.thumb_func
 489              	HAL_DMA_DeInit:
 490              	.LVL25:
 491              	.LFB951:
 269:Drivers/STM32WBxx_HAL_Driver/Src/stm32wbxx_hal_dma.c **** 
 492              		.loc 1 269 1 is_stmt 1 view -0
 493              		.cfi_startproc
 494              		@ args = 0, pretend = 0, frame = 0
 495              		@ frame_needed = 0, uses_anonymous_args = 0
 272:Drivers/STM32WBxx_HAL_Driver/Src/stm32wbxx_hal_dma.c ****   {
 496              		.loc 1 272 3 view .LVU173
 272:Drivers/STM32WBxx_HAL_Driver/Src/stm32wbxx_hal_dma.c ****   {
 497              		.loc 1 272 6 is_stmt 0 view .LVU174
 498 0000 0028     		cmp	r0, #0
 499 0002 4BD0     		beq	.L36
 269:Drivers/STM32WBxx_HAL_Driver/Src/stm32wbxx_hal_dma.c **** 
 500              		.loc 1 269 1 view .LVU175
 501 0004 38B5     		push	{r3, r4, r5, lr}
 502              		.cfi_def_cfa_offset 16
 503              		.cfi_offset 3, -16
 504              		.cfi_offset 4, -12
ARM GAS  C:\Users\Kevin\AppData\Local\Temp\ccg63WcD.s 			page 31


 505              		.cfi_offset 5, -8
 506              		.cfi_offset 14, -4
 507 0006 0446     		mov	r4, r0
 278:Drivers/STM32WBxx_HAL_Driver/Src/stm32wbxx_hal_dma.c **** 
 508              		.loc 1 278 3 is_stmt 1 view .LVU176
 281:Drivers/STM32WBxx_HAL_Driver/Src/stm32wbxx_hal_dma.c **** 
 509              		.loc 1 281 3 view .LVU177
 510 0008 0268     		ldr	r2, [r0]
 511 000a 1368     		ldr	r3, [r2]
 512 000c 23F00103 		bic	r3, r3, #1
 513 0010 1360     		str	r3, [r2]
 285:Drivers/STM32WBxx_HAL_Driver/Src/stm32wbxx_hal_dma.c ****   {
 514              		.loc 1 285 3 view .LVU178
 285:Drivers/STM32WBxx_HAL_Driver/Src/stm32wbxx_hal_dma.c ****   {
 515              		.loc 1 285 22 is_stmt 0 view .LVU179
 516 0012 0268     		ldr	r2, [r0]
 285:Drivers/STM32WBxx_HAL_Driver/Src/stm32wbxx_hal_dma.c ****   {
 517              		.loc 1 285 6 view .LVU180
 518 0014 224B     		ldr	r3, .L42
 519 0016 9A42     		cmp	r2, r3
 520 0018 2CD8     		bhi	.L33
 288:Drivers/STM32WBxx_HAL_Driver/Src/stm32wbxx_hal_dma.c ****     hdma->DmaBaseAddress = DMA1;
 521              		.loc 1 288 5 is_stmt 1 view .LVU181
 288:Drivers/STM32WBxx_HAL_Driver/Src/stm32wbxx_hal_dma.c ****     hdma->DmaBaseAddress = DMA1;
 522              		.loc 1 288 53 is_stmt 0 view .LVU182
 523 001a 224B     		ldr	r3, .L42+4
 524 001c 1344     		add	r3, r3, r2
 288:Drivers/STM32WBxx_HAL_Driver/Src/stm32wbxx_hal_dma.c ****     hdma->DmaBaseAddress = DMA1;
 525              		.loc 1 288 80 view .LVU183
 526 001e 2249     		ldr	r1, .L42+8
 527 0020 A1FB0313 		umull	r1, r3, r1, r3
 528 0024 1B09     		lsrs	r3, r3, #4
 288:Drivers/STM32WBxx_HAL_Driver/Src/stm32wbxx_hal_dma.c ****     hdma->DmaBaseAddress = DMA1;
 529              		.loc 1 288 135 view .LVU184
 530 0026 9B00     		lsls	r3, r3, #2
 288:Drivers/STM32WBxx_HAL_Driver/Src/stm32wbxx_hal_dma.c ****     hdma->DmaBaseAddress = DMA1;
 531              		.loc 1 288 24 view .LVU185
 532 0028 4364     		str	r3, [r0, #68]
 289:Drivers/STM32WBxx_HAL_Driver/Src/stm32wbxx_hal_dma.c ****   }
 533              		.loc 1 289 5 is_stmt 1 view .LVU186
 289:Drivers/STM32WBxx_HAL_Driver/Src/stm32wbxx_hal_dma.c ****   }
 534              		.loc 1 289 26 is_stmt 0 view .LVU187
 535 002a 204B     		ldr	r3, .L42+12
 536 002c 0364     		str	r3, [r0, #64]
 537              	.L34:
 304:Drivers/STM32WBxx_HAL_Driver/Src/stm32wbxx_hal_dma.c **** 
 538              		.loc 1 304 3 is_stmt 1 view .LVU188
 304:Drivers/STM32WBxx_HAL_Driver/Src/stm32wbxx_hal_dma.c **** 
 539              		.loc 1 304 24 is_stmt 0 view .LVU189
 540 002e 0025     		movs	r5, #0
 541 0030 1560     		str	r5, [r2]
 307:Drivers/STM32WBxx_HAL_Driver/Src/stm32wbxx_hal_dma.c **** 
 542              		.loc 1 307 3 is_stmt 1 view .LVU190
 307:Drivers/STM32WBxx_HAL_Driver/Src/stm32wbxx_hal_dma.c **** 
 543              		.loc 1 307 54 is_stmt 0 view .LVU191
 544 0032 636C     		ldr	r3, [r4, #68]
 307:Drivers/STM32WBxx_HAL_Driver/Src/stm32wbxx_hal_dma.c **** 
ARM GAS  C:\Users\Kevin\AppData\Local\Temp\ccg63WcD.s 			page 32


 545              		.loc 1 307 69 view .LVU192
 546 0034 03F01C02 		and	r2, r3, #28
 307:Drivers/STM32WBxx_HAL_Driver/Src/stm32wbxx_hal_dma.c **** 
 547              		.loc 1 307 7 view .LVU193
 548 0038 216C     		ldr	r1, [r4, #64]
 307:Drivers/STM32WBxx_HAL_Driver/Src/stm32wbxx_hal_dma.c **** 
 549              		.loc 1 307 46 view .LVU194
 550 003a 0123     		movs	r3, #1
 551 003c 9340     		lsls	r3, r3, r2
 307:Drivers/STM32WBxx_HAL_Driver/Src/stm32wbxx_hal_dma.c **** 
 552              		.loc 1 307 30 view .LVU195
 553 003e 4B60     		str	r3, [r1, #4]
 312:Drivers/STM32WBxx_HAL_Driver/Src/stm32wbxx_hal_dma.c **** 
 554              		.loc 1 312 3 is_stmt 1 view .LVU196
 555 0040 2046     		mov	r0, r4
 556              	.LVL26:
 312:Drivers/STM32WBxx_HAL_Driver/Src/stm32wbxx_hal_dma.c **** 
 557              		.loc 1 312 3 is_stmt 0 view .LVU197
 558 0042 FFF7FEFF 		bl	DMA_CalcDMAMUXChannelBaseAndMask
 559              	.LVL27:
 315:Drivers/STM32WBxx_HAL_Driver/Src/stm32wbxx_hal_dma.c **** 
 560              		.loc 1 315 3 is_stmt 1 view .LVU198
 315:Drivers/STM32WBxx_HAL_Driver/Src/stm32wbxx_hal_dma.c **** 
 561              		.loc 1 315 7 is_stmt 0 view .LVU199
 562 0046 A36C     		ldr	r3, [r4, #72]
 315:Drivers/STM32WBxx_HAL_Driver/Src/stm32wbxx_hal_dma.c **** 
 563              		.loc 1 315 28 view .LVU200
 564 0048 1D60     		str	r5, [r3]
 318:Drivers/STM32WBxx_HAL_Driver/Src/stm32wbxx_hal_dma.c **** 
 565              		.loc 1 318 3 is_stmt 1 view .LVU201
 318:Drivers/STM32WBxx_HAL_Driver/Src/stm32wbxx_hal_dma.c **** 
 566              		.loc 1 318 7 is_stmt 0 view .LVU202
 567 004a E36C     		ldr	r3, [r4, #76]
 318:Drivers/STM32WBxx_HAL_Driver/Src/stm32wbxx_hal_dma.c **** 
 568              		.loc 1 318 40 view .LVU203
 569 004c 226D     		ldr	r2, [r4, #80]
 318:Drivers/STM32WBxx_HAL_Driver/Src/stm32wbxx_hal_dma.c **** 
 570              		.loc 1 318 34 view .LVU204
 571 004e 5A60     		str	r2, [r3, #4]
 321:Drivers/STM32WBxx_HAL_Driver/Src/stm32wbxx_hal_dma.c ****   {
 572              		.loc 1 321 3 is_stmt 1 view .LVU205
 321:Drivers/STM32WBxx_HAL_Driver/Src/stm32wbxx_hal_dma.c ****   {
 573              		.loc 1 321 19 is_stmt 0 view .LVU206
 574 0050 6368     		ldr	r3, [r4, #4]
 321:Drivers/STM32WBxx_HAL_Driver/Src/stm32wbxx_hal_dma.c ****   {
 575              		.loc 1 321 35 view .LVU207
 576 0052 013B     		subs	r3, r3, #1
 321:Drivers/STM32WBxx_HAL_Driver/Src/stm32wbxx_hal_dma.c ****   {
 577              		.loc 1 321 6 view .LVU208
 578 0054 032B     		cmp	r3, #3
 579 0056 18D9     		bls	.L41
 580              	.L35:
 335:Drivers/STM32WBxx_HAL_Driver/Src/stm32wbxx_hal_dma.c ****   hdma->DMAmuxRequestGenStatus = 0U;
 581              		.loc 1 335 3 is_stmt 1 view .LVU209
 335:Drivers/STM32WBxx_HAL_Driver/Src/stm32wbxx_hal_dma.c ****   hdma->DMAmuxRequestGenStatus = 0U;
 582              		.loc 1 335 26 is_stmt 0 view .LVU210
 583 0058 0020     		movs	r0, #0
ARM GAS  C:\Users\Kevin\AppData\Local\Temp\ccg63WcD.s 			page 33


 584 005a 6065     		str	r0, [r4, #84]
 336:Drivers/STM32WBxx_HAL_Driver/Src/stm32wbxx_hal_dma.c ****   hdma->DMAmuxRequestGenStatusMask = 0U;
 585              		.loc 1 336 3 is_stmt 1 view .LVU211
 336:Drivers/STM32WBxx_HAL_Driver/Src/stm32wbxx_hal_dma.c ****   hdma->DMAmuxRequestGenStatusMask = 0U;
 586              		.loc 1 336 32 is_stmt 0 view .LVU212
 587 005c A065     		str	r0, [r4, #88]
 337:Drivers/STM32WBxx_HAL_Driver/Src/stm32wbxx_hal_dma.c **** 
 588              		.loc 1 337 3 is_stmt 1 view .LVU213
 337:Drivers/STM32WBxx_HAL_Driver/Src/stm32wbxx_hal_dma.c **** 
 589              		.loc 1 337 36 is_stmt 0 view .LVU214
 590 005e E065     		str	r0, [r4, #92]
 340:Drivers/STM32WBxx_HAL_Driver/Src/stm32wbxx_hal_dma.c ****   hdma->XferHalfCpltCallback = NULL;
 591              		.loc 1 340 3 is_stmt 1 view .LVU215
 340:Drivers/STM32WBxx_HAL_Driver/Src/stm32wbxx_hal_dma.c ****   hdma->XferHalfCpltCallback = NULL;
 592              		.loc 1 340 26 is_stmt 0 view .LVU216
 593 0060 E062     		str	r0, [r4, #44]
 341:Drivers/STM32WBxx_HAL_Driver/Src/stm32wbxx_hal_dma.c ****   hdma->XferErrorCallback = NULL;
 594              		.loc 1 341 3 is_stmt 1 view .LVU217
 341:Drivers/STM32WBxx_HAL_Driver/Src/stm32wbxx_hal_dma.c ****   hdma->XferErrorCallback = NULL;
 595              		.loc 1 341 30 is_stmt 0 view .LVU218
 596 0062 2063     		str	r0, [r4, #48]
 342:Drivers/STM32WBxx_HAL_Driver/Src/stm32wbxx_hal_dma.c ****   hdma->XferAbortCallback = NULL;
 597              		.loc 1 342 3 is_stmt 1 view .LVU219
 342:Drivers/STM32WBxx_HAL_Driver/Src/stm32wbxx_hal_dma.c ****   hdma->XferAbortCallback = NULL;
 598              		.loc 1 342 27 is_stmt 0 view .LVU220
 599 0064 6063     		str	r0, [r4, #52]
 343:Drivers/STM32WBxx_HAL_Driver/Src/stm32wbxx_hal_dma.c **** 
 600              		.loc 1 343 3 is_stmt 1 view .LVU221
 343:Drivers/STM32WBxx_HAL_Driver/Src/stm32wbxx_hal_dma.c **** 
 601              		.loc 1 343 27 is_stmt 0 view .LVU222
 602 0066 A063     		str	r0, [r4, #56]
 346:Drivers/STM32WBxx_HAL_Driver/Src/stm32wbxx_hal_dma.c **** 
 603              		.loc 1 346 3 is_stmt 1 view .LVU223
 346:Drivers/STM32WBxx_HAL_Driver/Src/stm32wbxx_hal_dma.c **** 
 604              		.loc 1 346 19 is_stmt 0 view .LVU224
 605 0068 E063     		str	r0, [r4, #60]
 349:Drivers/STM32WBxx_HAL_Driver/Src/stm32wbxx_hal_dma.c **** 
 606              		.loc 1 349 3 is_stmt 1 view .LVU225
 349:Drivers/STM32WBxx_HAL_Driver/Src/stm32wbxx_hal_dma.c **** 
 607              		.loc 1 349 15 is_stmt 0 view .LVU226
 608 006a 84F82500 		strb	r0, [r4, #37]
 352:Drivers/STM32WBxx_HAL_Driver/Src/stm32wbxx_hal_dma.c **** 
 609              		.loc 1 352 3 is_stmt 1 view .LVU227
 352:Drivers/STM32WBxx_HAL_Driver/Src/stm32wbxx_hal_dma.c **** 
 610              		.loc 1 352 3 view .LVU228
 611 006e 84F82400 		strb	r0, [r4, #36]
 352:Drivers/STM32WBxx_HAL_Driver/Src/stm32wbxx_hal_dma.c **** 
 612              		.loc 1 352 3 view .LVU229
 354:Drivers/STM32WBxx_HAL_Driver/Src/stm32wbxx_hal_dma.c **** }
 613              		.loc 1 354 3 view .LVU230
 355:Drivers/STM32WBxx_HAL_Driver/Src/stm32wbxx_hal_dma.c **** 
 614              		.loc 1 355 1 is_stmt 0 view .LVU231
 615 0072 38BD     		pop	{r3, r4, r5, pc}
 616              	.LVL28:
 617              	.L33:
 294:Drivers/STM32WBxx_HAL_Driver/Src/stm32wbxx_hal_dma.c ****     hdma->DmaBaseAddress = DMA2;
 618              		.loc 1 294 5 is_stmt 1 view .LVU232
ARM GAS  C:\Users\Kevin\AppData\Local\Temp\ccg63WcD.s 			page 34


 294:Drivers/STM32WBxx_HAL_Driver/Src/stm32wbxx_hal_dma.c ****     hdma->DmaBaseAddress = DMA2;
 619              		.loc 1 294 53 is_stmt 0 view .LVU233
 620 0074 0E4B     		ldr	r3, .L42+16
 621 0076 1344     		add	r3, r3, r2
 294:Drivers/STM32WBxx_HAL_Driver/Src/stm32wbxx_hal_dma.c ****     hdma->DmaBaseAddress = DMA2;
 622              		.loc 1 294 80 view .LVU234
 623 0078 0B49     		ldr	r1, .L42+8
 624 007a A1FB0313 		umull	r1, r3, r1, r3
 625 007e 1B09     		lsrs	r3, r3, #4
 294:Drivers/STM32WBxx_HAL_Driver/Src/stm32wbxx_hal_dma.c ****     hdma->DmaBaseAddress = DMA2;
 626              		.loc 1 294 135 view .LVU235
 627 0080 9B00     		lsls	r3, r3, #2
 294:Drivers/STM32WBxx_HAL_Driver/Src/stm32wbxx_hal_dma.c ****     hdma->DmaBaseAddress = DMA2;
 628              		.loc 1 294 24 view .LVU236
 629 0082 4364     		str	r3, [r0, #68]
 295:Drivers/STM32WBxx_HAL_Driver/Src/stm32wbxx_hal_dma.c ****   }
 630              		.loc 1 295 5 is_stmt 1 view .LVU237
 295:Drivers/STM32WBxx_HAL_Driver/Src/stm32wbxx_hal_dma.c ****   }
 631              		.loc 1 295 26 is_stmt 0 view .LVU238
 632 0084 0B4B     		ldr	r3, .L42+20
 633 0086 0364     		str	r3, [r0, #64]
 634 0088 D1E7     		b	.L34
 635              	.LVL29:
 636              	.L41:
 326:Drivers/STM32WBxx_HAL_Driver/Src/stm32wbxx_hal_dma.c **** 
 637              		.loc 1 326 5 is_stmt 1 view .LVU239
 638 008a 2046     		mov	r0, r4
 639 008c FFF7FEFF 		bl	DMA_CalcDMAMUXRequestGenBaseAndMask
 640              	.LVL30:
 329:Drivers/STM32WBxx_HAL_Driver/Src/stm32wbxx_hal_dma.c **** 
 641              		.loc 1 329 5 view .LVU240
 329:Drivers/STM32WBxx_HAL_Driver/Src/stm32wbxx_hal_dma.c **** 
 642              		.loc 1 329 9 is_stmt 0 view .LVU241
 643 0090 636D     		ldr	r3, [r4, #84]
 329:Drivers/STM32WBxx_HAL_Driver/Src/stm32wbxx_hal_dma.c **** 
 644              		.loc 1 329 34 view .LVU242
 645 0092 1D60     		str	r5, [r3]
 332:Drivers/STM32WBxx_HAL_Driver/Src/stm32wbxx_hal_dma.c ****   }
 646              		.loc 1 332 5 is_stmt 1 view .LVU243
 332:Drivers/STM32WBxx_HAL_Driver/Src/stm32wbxx_hal_dma.c ****   }
 647              		.loc 1 332 9 is_stmt 0 view .LVU244
 648 0094 A36D     		ldr	r3, [r4, #88]
 332:Drivers/STM32WBxx_HAL_Driver/Src/stm32wbxx_hal_dma.c ****   }
 649              		.loc 1 332 47 view .LVU245
 650 0096 E26D     		ldr	r2, [r4, #92]
 332:Drivers/STM32WBxx_HAL_Driver/Src/stm32wbxx_hal_dma.c ****   }
 651              		.loc 1 332 41 view .LVU246
 652 0098 5A60     		str	r2, [r3, #4]
 653 009a DDE7     		b	.L35
 654              	.LVL31:
 655              	.L36:
 656              		.cfi_def_cfa_offset 0
 657              		.cfi_restore 3
 658              		.cfi_restore 4
 659              		.cfi_restore 5
 660              		.cfi_restore 14
 274:Drivers/STM32WBxx_HAL_Driver/Src/stm32wbxx_hal_dma.c ****   }
ARM GAS  C:\Users\Kevin\AppData\Local\Temp\ccg63WcD.s 			page 35


 661              		.loc 1 274 12 view .LVU247
 662 009c 0120     		movs	r0, #1
 663              	.LVL32:
 355:Drivers/STM32WBxx_HAL_Driver/Src/stm32wbxx_hal_dma.c **** 
 664              		.loc 1 355 1 view .LVU248
 665 009e 7047     		bx	lr
 666              	.L43:
 667              		.align	2
 668              	.L42:
 669 00a0 07040240 		.word	1073873927
 670 00a4 F8FFFDBF 		.word	-1073872904
 671 00a8 CDCCCCCC 		.word	-858993459
 672 00ac 00000240 		.word	1073872896
 673 00b0 F8FBFDBF 		.word	-1073873928
 674 00b4 00040240 		.word	1073873920
 675              		.cfi_endproc
 676              	.LFE951:
 678              		.section	.text.HAL_DMA_Start,"ax",%progbits
 679              		.align	1
 680              		.global	HAL_DMA_Start
 681              		.syntax unified
 682              		.thumb
 683              		.thumb_func
 685              	HAL_DMA_Start:
 686              	.LVL33:
 687              	.LFB952:
 390:Drivers/STM32WBxx_HAL_Driver/Src/stm32wbxx_hal_dma.c ****   HAL_StatusTypeDef status = HAL_OK;
 688              		.loc 1 390 1 is_stmt 1 view -0
 689              		.cfi_startproc
 690              		@ args = 0, pretend = 0, frame = 0
 691              		@ frame_needed = 0, uses_anonymous_args = 0
 390:Drivers/STM32WBxx_HAL_Driver/Src/stm32wbxx_hal_dma.c ****   HAL_StatusTypeDef status = HAL_OK;
 692              		.loc 1 390 1 is_stmt 0 view .LVU250
 693 0000 70B5     		push	{r4, r5, r6, lr}
 694              		.cfi_def_cfa_offset 16
 695              		.cfi_offset 4, -16
 696              		.cfi_offset 5, -12
 697              		.cfi_offset 6, -8
 698              		.cfi_offset 14, -4
 699 0002 0446     		mov	r4, r0
 391:Drivers/STM32WBxx_HAL_Driver/Src/stm32wbxx_hal_dma.c **** 
 700              		.loc 1 391 3 is_stmt 1 view .LVU251
 701              	.LVL34:
 394:Drivers/STM32WBxx_HAL_Driver/Src/stm32wbxx_hal_dma.c **** 
 702              		.loc 1 394 3 view .LVU252
 397:Drivers/STM32WBxx_HAL_Driver/Src/stm32wbxx_hal_dma.c **** 
 703              		.loc 1 397 3 view .LVU253
 397:Drivers/STM32WBxx_HAL_Driver/Src/stm32wbxx_hal_dma.c **** 
 704              		.loc 1 397 3 view .LVU254
 705 0004 90F82400 		ldrb	r0, [r0, #36]	@ zero_extendqisi2
 706              	.LVL35:
 397:Drivers/STM32WBxx_HAL_Driver/Src/stm32wbxx_hal_dma.c **** 
 707              		.loc 1 397 3 is_stmt 0 view .LVU255
 708 0008 0128     		cmp	r0, #1
 709 000a 20D0     		beq	.L47
 397:Drivers/STM32WBxx_HAL_Driver/Src/stm32wbxx_hal_dma.c **** 
 710              		.loc 1 397 3 is_stmt 1 discriminator 2 view .LVU256
ARM GAS  C:\Users\Kevin\AppData\Local\Temp\ccg63WcD.s 			page 36


 711 000c 0120     		movs	r0, #1
 712 000e 84F82400 		strb	r0, [r4, #36]
 397:Drivers/STM32WBxx_HAL_Driver/Src/stm32wbxx_hal_dma.c **** 
 713              		.loc 1 397 3 discriminator 2 view .LVU257
 399:Drivers/STM32WBxx_HAL_Driver/Src/stm32wbxx_hal_dma.c ****   {
 714              		.loc 1 399 3 discriminator 2 view .LVU258
 399:Drivers/STM32WBxx_HAL_Driver/Src/stm32wbxx_hal_dma.c ****   {
 715              		.loc 1 399 34 is_stmt 0 discriminator 2 view .LVU259
 716 0012 94F82500 		ldrb	r0, [r4, #37]	@ zero_extendqisi2
 717 0016 C0B2     		uxtb	r0, r0
 399:Drivers/STM32WBxx_HAL_Driver/Src/stm32wbxx_hal_dma.c ****   {
 718              		.loc 1 399 6 discriminator 2 view .LVU260
 719 0018 0128     		cmp	r0, #1
 720 001a 04D0     		beq	.L49
 417:Drivers/STM32WBxx_HAL_Driver/Src/stm32wbxx_hal_dma.c ****     status = HAL_BUSY;
 721              		.loc 1 417 5 is_stmt 1 view .LVU261
 417:Drivers/STM32WBxx_HAL_Driver/Src/stm32wbxx_hal_dma.c ****     status = HAL_BUSY;
 722              		.loc 1 417 5 view .LVU262
 723 001c 0023     		movs	r3, #0
 724              	.LVL36:
 417:Drivers/STM32WBxx_HAL_Driver/Src/stm32wbxx_hal_dma.c ****     status = HAL_BUSY;
 725              		.loc 1 417 5 is_stmt 0 view .LVU263
 726 001e 84F82430 		strb	r3, [r4, #36]
 417:Drivers/STM32WBxx_HAL_Driver/Src/stm32wbxx_hal_dma.c ****     status = HAL_BUSY;
 727              		.loc 1 417 5 is_stmt 1 view .LVU264
 418:Drivers/STM32WBxx_HAL_Driver/Src/stm32wbxx_hal_dma.c ****   }
 728              		.loc 1 418 5 view .LVU265
 729              	.LVL37:
 418:Drivers/STM32WBxx_HAL_Driver/Src/stm32wbxx_hal_dma.c ****   }
 730              		.loc 1 418 12 is_stmt 0 view .LVU266
 731 0022 0220     		movs	r0, #2
 732              	.LVL38:
 733              	.L45:
 421:Drivers/STM32WBxx_HAL_Driver/Src/stm32wbxx_hal_dma.c **** 
 734              		.loc 1 421 1 view .LVU267
 735 0024 70BD     		pop	{r4, r5, r6, pc}
 736              	.LVL39:
 737              	.L49:
 402:Drivers/STM32WBxx_HAL_Driver/Src/stm32wbxx_hal_dma.c ****     hdma->ErrorCode = HAL_DMA_ERROR_NONE;
 738              		.loc 1 402 5 is_stmt 1 view .LVU268
 402:Drivers/STM32WBxx_HAL_Driver/Src/stm32wbxx_hal_dma.c ****     hdma->ErrorCode = HAL_DMA_ERROR_NONE;
 739              		.loc 1 402 17 is_stmt 0 view .LVU269
 740 0026 0220     		movs	r0, #2
 741 0028 84F82500 		strb	r0, [r4, #37]
 403:Drivers/STM32WBxx_HAL_Driver/Src/stm32wbxx_hal_dma.c **** 
 742              		.loc 1 403 5 is_stmt 1 view .LVU270
 403:Drivers/STM32WBxx_HAL_Driver/Src/stm32wbxx_hal_dma.c **** 
 743              		.loc 1 403 21 is_stmt 0 view .LVU271
 744 002c 0025     		movs	r5, #0
 745 002e E563     		str	r5, [r4, #60]
 406:Drivers/STM32WBxx_HAL_Driver/Src/stm32wbxx_hal_dma.c **** 
 746              		.loc 1 406 5 is_stmt 1 view .LVU272
 747 0030 2668     		ldr	r6, [r4]
 748 0032 3068     		ldr	r0, [r6]
 749 0034 20F00100 		bic	r0, r0, #1
 750 0038 3060     		str	r0, [r6]
 409:Drivers/STM32WBxx_HAL_Driver/Src/stm32wbxx_hal_dma.c **** 
ARM GAS  C:\Users\Kevin\AppData\Local\Temp\ccg63WcD.s 			page 37


 751              		.loc 1 409 5 view .LVU273
 752 003a 2046     		mov	r0, r4
 753 003c FFF7FEFF 		bl	DMA_SetConfig
 754              	.LVL40:
 412:Drivers/STM32WBxx_HAL_Driver/Src/stm32wbxx_hal_dma.c ****   }
 755              		.loc 1 412 5 view .LVU274
 756 0040 2268     		ldr	r2, [r4]
 757 0042 1368     		ldr	r3, [r2]
 758 0044 43F00103 		orr	r3, r3, #1
 759 0048 1360     		str	r3, [r2]
 391:Drivers/STM32WBxx_HAL_Driver/Src/stm32wbxx_hal_dma.c **** 
 760              		.loc 1 391 21 is_stmt 0 view .LVU275
 761 004a 2846     		mov	r0, r5
 762 004c EAE7     		b	.L45
 763              	.LVL41:
 764              	.L47:
 397:Drivers/STM32WBxx_HAL_Driver/Src/stm32wbxx_hal_dma.c **** 
 765              		.loc 1 397 3 view .LVU276
 766 004e 0220     		movs	r0, #2
 767 0050 E8E7     		b	.L45
 768              		.cfi_endproc
 769              	.LFE952:
 771              		.section	.text.HAL_DMA_Start_IT,"ax",%progbits
 772              		.align	1
 773              		.global	HAL_DMA_Start_IT
 774              		.syntax unified
 775              		.thumb
 776              		.thumb_func
 778              	HAL_DMA_Start_IT:
 779              	.LVL42:
 780              	.LFB953:
 434:Drivers/STM32WBxx_HAL_Driver/Src/stm32wbxx_hal_dma.c ****   HAL_StatusTypeDef status = HAL_OK;
 781              		.loc 1 434 1 is_stmt 1 view -0
 782              		.cfi_startproc
 783              		@ args = 0, pretend = 0, frame = 0
 784              		@ frame_needed = 0, uses_anonymous_args = 0
 434:Drivers/STM32WBxx_HAL_Driver/Src/stm32wbxx_hal_dma.c ****   HAL_StatusTypeDef status = HAL_OK;
 785              		.loc 1 434 1 is_stmt 0 view .LVU278
 786 0000 38B5     		push	{r3, r4, r5, lr}
 787              		.cfi_def_cfa_offset 16
 788              		.cfi_offset 3, -16
 789              		.cfi_offset 4, -12
 790              		.cfi_offset 5, -8
 791              		.cfi_offset 14, -4
 792 0002 0446     		mov	r4, r0
 435:Drivers/STM32WBxx_HAL_Driver/Src/stm32wbxx_hal_dma.c **** 
 793              		.loc 1 435 3 is_stmt 1 view .LVU279
 794              	.LVL43:
 438:Drivers/STM32WBxx_HAL_Driver/Src/stm32wbxx_hal_dma.c **** 
 795              		.loc 1 438 3 view .LVU280
 441:Drivers/STM32WBxx_HAL_Driver/Src/stm32wbxx_hal_dma.c **** 
 796              		.loc 1 441 3 view .LVU281
 441:Drivers/STM32WBxx_HAL_Driver/Src/stm32wbxx_hal_dma.c **** 
 797              		.loc 1 441 3 view .LVU282
 798 0004 90F82400 		ldrb	r0, [r0, #36]	@ zero_extendqisi2
 799              	.LVL44:
 441:Drivers/STM32WBxx_HAL_Driver/Src/stm32wbxx_hal_dma.c **** 
ARM GAS  C:\Users\Kevin\AppData\Local\Temp\ccg63WcD.s 			page 38


 800              		.loc 1 441 3 is_stmt 0 view .LVU283
 801 0008 0128     		cmp	r0, #1
 802 000a 41D0     		beq	.L57
 441:Drivers/STM32WBxx_HAL_Driver/Src/stm32wbxx_hal_dma.c **** 
 803              		.loc 1 441 3 is_stmt 1 discriminator 2 view .LVU284
 804 000c 0120     		movs	r0, #1
 805 000e 84F82400 		strb	r0, [r4, #36]
 441:Drivers/STM32WBxx_HAL_Driver/Src/stm32wbxx_hal_dma.c **** 
 806              		.loc 1 441 3 discriminator 2 view .LVU285
 443:Drivers/STM32WBxx_HAL_Driver/Src/stm32wbxx_hal_dma.c ****   {
 807              		.loc 1 443 3 discriminator 2 view .LVU286
 443:Drivers/STM32WBxx_HAL_Driver/Src/stm32wbxx_hal_dma.c ****   {
 808              		.loc 1 443 34 is_stmt 0 discriminator 2 view .LVU287
 809 0012 94F82500 		ldrb	r0, [r4, #37]	@ zero_extendqisi2
 810 0016 C0B2     		uxtb	r0, r0
 443:Drivers/STM32WBxx_HAL_Driver/Src/stm32wbxx_hal_dma.c ****   {
 811              		.loc 1 443 6 discriminator 2 view .LVU288
 812 0018 0128     		cmp	r0, #1
 813 001a 04D0     		beq	.L59
 488:Drivers/STM32WBxx_HAL_Driver/Src/stm32wbxx_hal_dma.c **** 
 814              		.loc 1 488 5 is_stmt 1 view .LVU289
 488:Drivers/STM32WBxx_HAL_Driver/Src/stm32wbxx_hal_dma.c **** 
 815              		.loc 1 488 5 view .LVU290
 816 001c 0023     		movs	r3, #0
 817              	.LVL45:
 488:Drivers/STM32WBxx_HAL_Driver/Src/stm32wbxx_hal_dma.c **** 
 818              		.loc 1 488 5 is_stmt 0 view .LVU291
 819 001e 84F82430 		strb	r3, [r4, #36]
 488:Drivers/STM32WBxx_HAL_Driver/Src/stm32wbxx_hal_dma.c **** 
 820              		.loc 1 488 5 is_stmt 1 view .LVU292
 491:Drivers/STM32WBxx_HAL_Driver/Src/stm32wbxx_hal_dma.c ****   }
 821              		.loc 1 491 5 view .LVU293
 822              	.LVL46:
 491:Drivers/STM32WBxx_HAL_Driver/Src/stm32wbxx_hal_dma.c ****   }
 823              		.loc 1 491 12 is_stmt 0 view .LVU294
 824 0022 0220     		movs	r0, #2
 825              	.LVL47:
 826              	.L51:
 494:Drivers/STM32WBxx_HAL_Driver/Src/stm32wbxx_hal_dma.c **** 
 827              		.loc 1 494 1 view .LVU295
 828 0024 38BD     		pop	{r3, r4, r5, pc}
 829              	.LVL48:
 830              	.L59:
 446:Drivers/STM32WBxx_HAL_Driver/Src/stm32wbxx_hal_dma.c ****     hdma->ErrorCode = HAL_DMA_ERROR_NONE;
 831              		.loc 1 446 5 is_stmt 1 view .LVU296
 446:Drivers/STM32WBxx_HAL_Driver/Src/stm32wbxx_hal_dma.c ****     hdma->ErrorCode = HAL_DMA_ERROR_NONE;
 832              		.loc 1 446 17 is_stmt 0 view .LVU297
 833 0026 0220     		movs	r0, #2
 834 0028 84F82500 		strb	r0, [r4, #37]
 447:Drivers/STM32WBxx_HAL_Driver/Src/stm32wbxx_hal_dma.c **** 
 835              		.loc 1 447 5 is_stmt 1 view .LVU298
 447:Drivers/STM32WBxx_HAL_Driver/Src/stm32wbxx_hal_dma.c **** 
 836              		.loc 1 447 21 is_stmt 0 view .LVU299
 837 002c 0020     		movs	r0, #0
 838 002e E063     		str	r0, [r4, #60]
 450:Drivers/STM32WBxx_HAL_Driver/Src/stm32wbxx_hal_dma.c **** 
 839              		.loc 1 450 5 is_stmt 1 view .LVU300
ARM GAS  C:\Users\Kevin\AppData\Local\Temp\ccg63WcD.s 			page 39


 840 0030 2568     		ldr	r5, [r4]
 841 0032 2868     		ldr	r0, [r5]
 842 0034 20F00100 		bic	r0, r0, #1
 843 0038 2860     		str	r0, [r5]
 453:Drivers/STM32WBxx_HAL_Driver/Src/stm32wbxx_hal_dma.c **** 
 844              		.loc 1 453 5 view .LVU301
 845 003a 2046     		mov	r0, r4
 846 003c FFF7FEFF 		bl	DMA_SetConfig
 847              	.LVL49:
 457:Drivers/STM32WBxx_HAL_Driver/Src/stm32wbxx_hal_dma.c ****     {
 848              		.loc 1 457 5 view .LVU302
 457:Drivers/STM32WBxx_HAL_Driver/Src/stm32wbxx_hal_dma.c ****     {
 849              		.loc 1 457 21 is_stmt 0 view .LVU303
 850 0040 236B     		ldr	r3, [r4, #48]
 457:Drivers/STM32WBxx_HAL_Driver/Src/stm32wbxx_hal_dma.c ****     {
 851              		.loc 1 457 8 view .LVU304
 852 0042 D3B1     		cbz	r3, .L53
 460:Drivers/STM32WBxx_HAL_Driver/Src/stm32wbxx_hal_dma.c ****     }
 853              		.loc 1 460 7 is_stmt 1 view .LVU305
 854 0044 2268     		ldr	r2, [r4]
 855 0046 1368     		ldr	r3, [r2]
 856 0048 43F00E03 		orr	r3, r3, #14
 857 004c 1360     		str	r3, [r2]
 858              	.L54:
 469:Drivers/STM32WBxx_HAL_Driver/Src/stm32wbxx_hal_dma.c ****     {
 859              		.loc 1 469 5 view .LVU306
 469:Drivers/STM32WBxx_HAL_Driver/Src/stm32wbxx_hal_dma.c ****     {
 860              		.loc 1 469 14 is_stmt 0 view .LVU307
 861 004e A36C     		ldr	r3, [r4, #72]
 469:Drivers/STM32WBxx_HAL_Driver/Src/stm32wbxx_hal_dma.c ****     {
 862              		.loc 1 469 29 view .LVU308
 863 0050 1A68     		ldr	r2, [r3]
 469:Drivers/STM32WBxx_HAL_Driver/Src/stm32wbxx_hal_dma.c ****     {
 864              		.loc 1 469 8 view .LVU309
 865 0052 12F4803F 		tst	r2, #65536
 866 0056 03D0     		beq	.L55
 472:Drivers/STM32WBxx_HAL_Driver/Src/stm32wbxx_hal_dma.c ****     }
 867              		.loc 1 472 7 is_stmt 1 view .LVU310
 472:Drivers/STM32WBxx_HAL_Driver/Src/stm32wbxx_hal_dma.c ****     }
 868              		.loc 1 472 26 is_stmt 0 view .LVU311
 869 0058 1A68     		ldr	r2, [r3]
 472:Drivers/STM32WBxx_HAL_Driver/Src/stm32wbxx_hal_dma.c ****     }
 870              		.loc 1 472 32 view .LVU312
 871 005a 42F48072 		orr	r2, r2, #256
 872 005e 1A60     		str	r2, [r3]
 873              	.L55:
 475:Drivers/STM32WBxx_HAL_Driver/Src/stm32wbxx_hal_dma.c ****     {
 874              		.loc 1 475 5 is_stmt 1 view .LVU313
 475:Drivers/STM32WBxx_HAL_Driver/Src/stm32wbxx_hal_dma.c ****     {
 875              		.loc 1 475 13 is_stmt 0 view .LVU314
 876 0060 636D     		ldr	r3, [r4, #84]
 475:Drivers/STM32WBxx_HAL_Driver/Src/stm32wbxx_hal_dma.c ****     {
 877              		.loc 1 475 8 view .LVU315
 878 0062 1BB1     		cbz	r3, .L56
 479:Drivers/STM32WBxx_HAL_Driver/Src/stm32wbxx_hal_dma.c ****     }
 879              		.loc 1 479 7 is_stmt 1 view .LVU316
 479:Drivers/STM32WBxx_HAL_Driver/Src/stm32wbxx_hal_dma.c ****     }
ARM GAS  C:\Users\Kevin\AppData\Local\Temp\ccg63WcD.s 			page 40


 880              		.loc 1 479 29 is_stmt 0 view .LVU317
 881 0064 1A68     		ldr	r2, [r3]
 479:Drivers/STM32WBxx_HAL_Driver/Src/stm32wbxx_hal_dma.c ****     }
 882              		.loc 1 479 36 view .LVU318
 883 0066 42F48072 		orr	r2, r2, #256
 884 006a 1A60     		str	r2, [r3]
 885              	.L56:
 483:Drivers/STM32WBxx_HAL_Driver/Src/stm32wbxx_hal_dma.c ****   }
 886              		.loc 1 483 5 is_stmt 1 view .LVU319
 887 006c 2268     		ldr	r2, [r4]
 888 006e 1368     		ldr	r3, [r2]
 889 0070 43F00103 		orr	r3, r3, #1
 890 0074 1360     		str	r3, [r2]
 435:Drivers/STM32WBxx_HAL_Driver/Src/stm32wbxx_hal_dma.c **** 
 891              		.loc 1 435 21 is_stmt 0 view .LVU320
 892 0076 0020     		movs	r0, #0
 893 0078 D4E7     		b	.L51
 894              	.L53:
 464:Drivers/STM32WBxx_HAL_Driver/Src/stm32wbxx_hal_dma.c ****       __HAL_DMA_ENABLE_IT(hdma, (DMA_IT_TC | DMA_IT_TE));
 895              		.loc 1 464 7 is_stmt 1 view .LVU321
 896 007a 2268     		ldr	r2, [r4]
 897 007c 1368     		ldr	r3, [r2]
 898 007e 23F00403 		bic	r3, r3, #4
 899 0082 1360     		str	r3, [r2]
 465:Drivers/STM32WBxx_HAL_Driver/Src/stm32wbxx_hal_dma.c ****     }
 900              		.loc 1 465 7 view .LVU322
 901 0084 2268     		ldr	r2, [r4]
 902 0086 1368     		ldr	r3, [r2]
 903 0088 43F00A03 		orr	r3, r3, #10
 904 008c 1360     		str	r3, [r2]
 905 008e DEE7     		b	.L54
 906              	.LVL50:
 907              	.L57:
 441:Drivers/STM32WBxx_HAL_Driver/Src/stm32wbxx_hal_dma.c **** 
 908              		.loc 1 441 3 is_stmt 0 view .LVU323
 909 0090 0220     		movs	r0, #2
 910 0092 C7E7     		b	.L51
 911              		.cfi_endproc
 912              	.LFE953:
 914              		.section	.text.HAL_DMA_Abort,"ax",%progbits
 915              		.align	1
 916              		.global	HAL_DMA_Abort
 917              		.syntax unified
 918              		.thumb
 919              		.thumb_func
 921              	HAL_DMA_Abort:
 922              	.LVL51:
 923              	.LFB954:
 503:Drivers/STM32WBxx_HAL_Driver/Src/stm32wbxx_hal_dma.c **** 
 924              		.loc 1 503 1 is_stmt 1 view -0
 925              		.cfi_startproc
 926              		@ args = 0, pretend = 0, frame = 0
 927              		@ frame_needed = 0, uses_anonymous_args = 0
 928              		@ link register save eliminated.
 506:Drivers/STM32WBxx_HAL_Driver/Src/stm32wbxx_hal_dma.c ****   {
 929              		.loc 1 506 3 view .LVU325
 506:Drivers/STM32WBxx_HAL_Driver/Src/stm32wbxx_hal_dma.c ****   {
ARM GAS  C:\Users\Kevin\AppData\Local\Temp\ccg63WcD.s 			page 41


 930              		.loc 1 506 6 is_stmt 0 view .LVU326
 931 0000 0346     		mov	r3, r0
 932 0002 0028     		cmp	r0, #0
 933 0004 34D0     		beq	.L64
 512:Drivers/STM32WBxx_HAL_Driver/Src/stm32wbxx_hal_dma.c ****   {
 934              		.loc 1 512 3 is_stmt 1 view .LVU327
 512:Drivers/STM32WBxx_HAL_Driver/Src/stm32wbxx_hal_dma.c ****   {
 935              		.loc 1 512 11 is_stmt 0 view .LVU328
 936 0006 90F82520 		ldrb	r2, [r0, #37]	@ zero_extendqisi2
 937 000a D2B2     		uxtb	r2, r2
 512:Drivers/STM32WBxx_HAL_Driver/Src/stm32wbxx_hal_dma.c ****   {
 938              		.loc 1 512 6 view .LVU329
 939 000c 022A     		cmp	r2, #2
 940 000e 06D0     		beq	.L62
 514:Drivers/STM32WBxx_HAL_Driver/Src/stm32wbxx_hal_dma.c **** 
 941              		.loc 1 514 5 is_stmt 1 view .LVU330
 514:Drivers/STM32WBxx_HAL_Driver/Src/stm32wbxx_hal_dma.c **** 
 942              		.loc 1 514 21 is_stmt 0 view .LVU331
 943 0010 0422     		movs	r2, #4
 944 0012 C263     		str	r2, [r0, #60]
 517:Drivers/STM32WBxx_HAL_Driver/Src/stm32wbxx_hal_dma.c **** 
 945              		.loc 1 517 5 is_stmt 1 view .LVU332
 517:Drivers/STM32WBxx_HAL_Driver/Src/stm32wbxx_hal_dma.c **** 
 946              		.loc 1 517 5 view .LVU333
 947 0014 0022     		movs	r2, #0
 948 0016 80F82420 		strb	r2, [r0, #36]
 517:Drivers/STM32WBxx_HAL_Driver/Src/stm32wbxx_hal_dma.c **** 
 949              		.loc 1 517 5 view .LVU334
 519:Drivers/STM32WBxx_HAL_Driver/Src/stm32wbxx_hal_dma.c ****   }
 950              		.loc 1 519 5 view .LVU335
 519:Drivers/STM32WBxx_HAL_Driver/Src/stm32wbxx_hal_dma.c ****   }
 951              		.loc 1 519 12 is_stmt 0 view .LVU336
 952 001a 0120     		movs	r0, #1
 953              	.LVL52:
 519:Drivers/STM32WBxx_HAL_Driver/Src/stm32wbxx_hal_dma.c ****   }
 954              		.loc 1 519 12 view .LVU337
 955 001c 7047     		bx	lr
 956              	.LVL53:
 957              	.L62:
 524:Drivers/STM32WBxx_HAL_Driver/Src/stm32wbxx_hal_dma.c **** 
 958              		.loc 1 524 5 is_stmt 1 view .LVU338
 959 001e 0168     		ldr	r1, [r0]
 960 0020 0A68     		ldr	r2, [r1]
 961 0022 22F00E02 		bic	r2, r2, #14
 962 0026 0A60     		str	r2, [r1]
 527:Drivers/STM32WBxx_HAL_Driver/Src/stm32wbxx_hal_dma.c **** 
 963              		.loc 1 527 5 view .LVU339
 527:Drivers/STM32WBxx_HAL_Driver/Src/stm32wbxx_hal_dma.c **** 
 964              		.loc 1 527 9 is_stmt 0 view .LVU340
 965 0028 816C     		ldr	r1, [r0, #72]
 527:Drivers/STM32WBxx_HAL_Driver/Src/stm32wbxx_hal_dma.c **** 
 966              		.loc 1 527 24 view .LVU341
 967 002a 0A68     		ldr	r2, [r1]
 527:Drivers/STM32WBxx_HAL_Driver/Src/stm32wbxx_hal_dma.c **** 
 968              		.loc 1 527 30 view .LVU342
 969 002c 22F48072 		bic	r2, r2, #256
 970 0030 0A60     		str	r2, [r1]
ARM GAS  C:\Users\Kevin\AppData\Local\Temp\ccg63WcD.s 			page 42


 530:Drivers/STM32WBxx_HAL_Driver/Src/stm32wbxx_hal_dma.c **** 
 971              		.loc 1 530 5 is_stmt 1 view .LVU343
 972 0032 0168     		ldr	r1, [r0]
 973 0034 0A68     		ldr	r2, [r1]
 974 0036 22F00102 		bic	r2, r2, #1
 975 003a 0A60     		str	r2, [r1]
 533:Drivers/STM32WBxx_HAL_Driver/Src/stm32wbxx_hal_dma.c **** 
 976              		.loc 1 533 5 view .LVU344
 533:Drivers/STM32WBxx_HAL_Driver/Src/stm32wbxx_hal_dma.c **** 
 977              		.loc 1 533 56 is_stmt 0 view .LVU345
 978 003c 426C     		ldr	r2, [r0, #68]
 533:Drivers/STM32WBxx_HAL_Driver/Src/stm32wbxx_hal_dma.c **** 
 979              		.loc 1 533 71 view .LVU346
 980 003e 02F01C01 		and	r1, r2, #28
 533:Drivers/STM32WBxx_HAL_Driver/Src/stm32wbxx_hal_dma.c **** 
 981              		.loc 1 533 9 view .LVU347
 982 0042 006C     		ldr	r0, [r0, #64]
 983              	.LVL54:
 533:Drivers/STM32WBxx_HAL_Driver/Src/stm32wbxx_hal_dma.c **** 
 984              		.loc 1 533 48 view .LVU348
 985 0044 0122     		movs	r2, #1
 986 0046 8A40     		lsls	r2, r2, r1
 533:Drivers/STM32WBxx_HAL_Driver/Src/stm32wbxx_hal_dma.c **** 
 987              		.loc 1 533 32 view .LVU349
 988 0048 4260     		str	r2, [r0, #4]
 536:Drivers/STM32WBxx_HAL_Driver/Src/stm32wbxx_hal_dma.c **** 
 989              		.loc 1 536 5 is_stmt 1 view .LVU350
 536:Drivers/STM32WBxx_HAL_Driver/Src/stm32wbxx_hal_dma.c **** 
 990              		.loc 1 536 9 is_stmt 0 view .LVU351
 991 004a DA6C     		ldr	r2, [r3, #76]
 536:Drivers/STM32WBxx_HAL_Driver/Src/stm32wbxx_hal_dma.c **** 
 992              		.loc 1 536 42 view .LVU352
 993 004c 196D     		ldr	r1, [r3, #80]
 536:Drivers/STM32WBxx_HAL_Driver/Src/stm32wbxx_hal_dma.c **** 
 994              		.loc 1 536 36 view .LVU353
 995 004e 5160     		str	r1, [r2, #4]
 538:Drivers/STM32WBxx_HAL_Driver/Src/stm32wbxx_hal_dma.c ****     {
 996              		.loc 1 538 5 is_stmt 1 view .LVU354
 538:Drivers/STM32WBxx_HAL_Driver/Src/stm32wbxx_hal_dma.c ****     {
 997              		.loc 1 538 13 is_stmt 0 view .LVU355
 998 0050 5A6D     		ldr	r2, [r3, #84]
 538:Drivers/STM32WBxx_HAL_Driver/Src/stm32wbxx_hal_dma.c ****     {
 999              		.loc 1 538 8 view .LVU356
 1000 0052 32B1     		cbz	r2, .L63
 542:Drivers/STM32WBxx_HAL_Driver/Src/stm32wbxx_hal_dma.c **** 
 1001              		.loc 1 542 7 is_stmt 1 view .LVU357
 542:Drivers/STM32WBxx_HAL_Driver/Src/stm32wbxx_hal_dma.c **** 
 1002              		.loc 1 542 29 is_stmt 0 view .LVU358
 1003 0054 1168     		ldr	r1, [r2]
 542:Drivers/STM32WBxx_HAL_Driver/Src/stm32wbxx_hal_dma.c **** 
 1004              		.loc 1 542 36 view .LVU359
 1005 0056 21F48071 		bic	r1, r1, #256
 1006 005a 1160     		str	r1, [r2]
 545:Drivers/STM32WBxx_HAL_Driver/Src/stm32wbxx_hal_dma.c ****     }
 1007              		.loc 1 545 7 is_stmt 1 view .LVU360
 545:Drivers/STM32WBxx_HAL_Driver/Src/stm32wbxx_hal_dma.c ****     }
 1008              		.loc 1 545 11 is_stmt 0 view .LVU361
ARM GAS  C:\Users\Kevin\AppData\Local\Temp\ccg63WcD.s 			page 43


 1009 005c 9A6D     		ldr	r2, [r3, #88]
 545:Drivers/STM32WBxx_HAL_Driver/Src/stm32wbxx_hal_dma.c ****     }
 1010              		.loc 1 545 49 view .LVU362
 1011 005e D96D     		ldr	r1, [r3, #92]
 545:Drivers/STM32WBxx_HAL_Driver/Src/stm32wbxx_hal_dma.c ****     }
 1012              		.loc 1 545 43 view .LVU363
 1013 0060 5160     		str	r1, [r2, #4]
 1014              	.L63:
 549:Drivers/STM32WBxx_HAL_Driver/Src/stm32wbxx_hal_dma.c **** 
 1015              		.loc 1 549 5 is_stmt 1 view .LVU364
 549:Drivers/STM32WBxx_HAL_Driver/Src/stm32wbxx_hal_dma.c **** 
 1016              		.loc 1 549 17 is_stmt 0 view .LVU365
 1017 0062 0122     		movs	r2, #1
 1018 0064 83F82520 		strb	r2, [r3, #37]
 552:Drivers/STM32WBxx_HAL_Driver/Src/stm32wbxx_hal_dma.c ****   }
 1019              		.loc 1 552 5 is_stmt 1 view .LVU366
 552:Drivers/STM32WBxx_HAL_Driver/Src/stm32wbxx_hal_dma.c ****   }
 1020              		.loc 1 552 5 view .LVU367
 1021 0068 0020     		movs	r0, #0
 1022 006a 83F82400 		strb	r0, [r3, #36]
 552:Drivers/STM32WBxx_HAL_Driver/Src/stm32wbxx_hal_dma.c ****   }
 1023              		.loc 1 552 5 view .LVU368
 555:Drivers/STM32WBxx_HAL_Driver/Src/stm32wbxx_hal_dma.c **** }
 1024              		.loc 1 555 3 view .LVU369
 555:Drivers/STM32WBxx_HAL_Driver/Src/stm32wbxx_hal_dma.c **** }
 1025              		.loc 1 555 10 is_stmt 0 view .LVU370
 1026 006e 7047     		bx	lr
 1027              	.LVL55:
 1028              	.L64:
 508:Drivers/STM32WBxx_HAL_Driver/Src/stm32wbxx_hal_dma.c ****   }
 1029              		.loc 1 508 12 view .LVU371
 1030 0070 0120     		movs	r0, #1
 1031              	.LVL56:
 556:Drivers/STM32WBxx_HAL_Driver/Src/stm32wbxx_hal_dma.c **** 
 1032              		.loc 1 556 1 view .LVU372
 1033 0072 7047     		bx	lr
 1034              		.cfi_endproc
 1035              	.LFE954:
 1037              		.section	.text.HAL_DMA_Abort_IT,"ax",%progbits
 1038              		.align	1
 1039              		.global	HAL_DMA_Abort_IT
 1040              		.syntax unified
 1041              		.thumb
 1042              		.thumb_func
 1044              	HAL_DMA_Abort_IT:
 1045              	.LVL57:
 1046              	.LFB955:
 565:Drivers/STM32WBxx_HAL_Driver/Src/stm32wbxx_hal_dma.c ****   HAL_StatusTypeDef status = HAL_OK;
 1047              		.loc 1 565 1 is_stmt 1 view -0
 1048              		.cfi_startproc
 1049              		@ args = 0, pretend = 0, frame = 0
 1050              		@ frame_needed = 0, uses_anonymous_args = 0
 565:Drivers/STM32WBxx_HAL_Driver/Src/stm32wbxx_hal_dma.c ****   HAL_StatusTypeDef status = HAL_OK;
 1051              		.loc 1 565 1 is_stmt 0 view .LVU374
 1052 0000 08B5     		push	{r3, lr}
 1053              		.cfi_def_cfa_offset 8
 1054              		.cfi_offset 3, -8
ARM GAS  C:\Users\Kevin\AppData\Local\Temp\ccg63WcD.s 			page 44


 1055              		.cfi_offset 14, -4
 566:Drivers/STM32WBxx_HAL_Driver/Src/stm32wbxx_hal_dma.c **** 
 1056              		.loc 1 566 3 is_stmt 1 view .LVU375
 1057              	.LVL58:
 568:Drivers/STM32WBxx_HAL_Driver/Src/stm32wbxx_hal_dma.c ****   {
 1058              		.loc 1 568 3 view .LVU376
 568:Drivers/STM32WBxx_HAL_Driver/Src/stm32wbxx_hal_dma.c ****   {
 1059              		.loc 1 568 33 is_stmt 0 view .LVU377
 1060 0002 90F82530 		ldrb	r3, [r0, #37]	@ zero_extendqisi2
 1061 0006 DBB2     		uxtb	r3, r3
 568:Drivers/STM32WBxx_HAL_Driver/Src/stm32wbxx_hal_dma.c ****   {
 1062              		.loc 1 568 6 view .LVU378
 1063 0008 022B     		cmp	r3, #2
 1064 000a 03D0     		beq	.L66
 571:Drivers/STM32WBxx_HAL_Driver/Src/stm32wbxx_hal_dma.c **** 
 1065              		.loc 1 571 5 is_stmt 1 view .LVU379
 571:Drivers/STM32WBxx_HAL_Driver/Src/stm32wbxx_hal_dma.c **** 
 1066              		.loc 1 571 21 is_stmt 0 view .LVU380
 1067 000c 0423     		movs	r3, #4
 1068 000e C363     		str	r3, [r0, #60]
 573:Drivers/STM32WBxx_HAL_Driver/Src/stm32wbxx_hal_dma.c ****   }
 1069              		.loc 1 573 5 is_stmt 1 view .LVU381
 1070              	.LVL59:
 573:Drivers/STM32WBxx_HAL_Driver/Src/stm32wbxx_hal_dma.c ****   }
 1071              		.loc 1 573 12 is_stmt 0 view .LVU382
 1072 0010 0120     		movs	r0, #1
 1073              	.LVL60:
 1074              	.L67:
 614:Drivers/STM32WBxx_HAL_Driver/Src/stm32wbxx_hal_dma.c **** }
 1075              		.loc 1 614 3 is_stmt 1 view .LVU383
 615:Drivers/STM32WBxx_HAL_Driver/Src/stm32wbxx_hal_dma.c **** 
 1076              		.loc 1 615 1 is_stmt 0 view .LVU384
 1077 0012 08BD     		pop	{r3, pc}
 1078              	.LVL61:
 1079              	.L66:
 578:Drivers/STM32WBxx_HAL_Driver/Src/stm32wbxx_hal_dma.c **** 
 1080              		.loc 1 578 5 is_stmt 1 view .LVU385
 1081 0014 0268     		ldr	r2, [r0]
 1082 0016 1368     		ldr	r3, [r2]
 1083 0018 23F00E03 		bic	r3, r3, #14
 1084 001c 1360     		str	r3, [r2]
 581:Drivers/STM32WBxx_HAL_Driver/Src/stm32wbxx_hal_dma.c **** 
 1085              		.loc 1 581 5 view .LVU386
 1086 001e 0268     		ldr	r2, [r0]
 1087 0020 1368     		ldr	r3, [r2]
 1088 0022 23F00103 		bic	r3, r3, #1
 1089 0026 1360     		str	r3, [r2]
 584:Drivers/STM32WBxx_HAL_Driver/Src/stm32wbxx_hal_dma.c **** 
 1090              		.loc 1 584 5 view .LVU387
 584:Drivers/STM32WBxx_HAL_Driver/Src/stm32wbxx_hal_dma.c **** 
 1091              		.loc 1 584 9 is_stmt 0 view .LVU388
 1092 0028 826C     		ldr	r2, [r0, #72]
 584:Drivers/STM32WBxx_HAL_Driver/Src/stm32wbxx_hal_dma.c **** 
 1093              		.loc 1 584 24 view .LVU389
 1094 002a 1368     		ldr	r3, [r2]
 584:Drivers/STM32WBxx_HAL_Driver/Src/stm32wbxx_hal_dma.c **** 
 1095              		.loc 1 584 30 view .LVU390
ARM GAS  C:\Users\Kevin\AppData\Local\Temp\ccg63WcD.s 			page 45


 1096 002c 23F48073 		bic	r3, r3, #256
 1097 0030 1360     		str	r3, [r2]
 587:Drivers/STM32WBxx_HAL_Driver/Src/stm32wbxx_hal_dma.c **** 
 1098              		.loc 1 587 5 is_stmt 1 view .LVU391
 587:Drivers/STM32WBxx_HAL_Driver/Src/stm32wbxx_hal_dma.c **** 
 1099              		.loc 1 587 56 is_stmt 0 view .LVU392
 1100 0032 436C     		ldr	r3, [r0, #68]
 587:Drivers/STM32WBxx_HAL_Driver/Src/stm32wbxx_hal_dma.c **** 
 1101              		.loc 1 587 71 view .LVU393
 1102 0034 03F01C02 		and	r2, r3, #28
 587:Drivers/STM32WBxx_HAL_Driver/Src/stm32wbxx_hal_dma.c **** 
 1103              		.loc 1 587 9 view .LVU394
 1104 0038 016C     		ldr	r1, [r0, #64]
 587:Drivers/STM32WBxx_HAL_Driver/Src/stm32wbxx_hal_dma.c **** 
 1105              		.loc 1 587 48 view .LVU395
 1106 003a 0123     		movs	r3, #1
 1107 003c 9340     		lsls	r3, r3, r2
 587:Drivers/STM32WBxx_HAL_Driver/Src/stm32wbxx_hal_dma.c **** 
 1108              		.loc 1 587 32 view .LVU396
 1109 003e 4B60     		str	r3, [r1, #4]
 590:Drivers/STM32WBxx_HAL_Driver/Src/stm32wbxx_hal_dma.c **** 
 1110              		.loc 1 590 5 is_stmt 1 view .LVU397
 590:Drivers/STM32WBxx_HAL_Driver/Src/stm32wbxx_hal_dma.c **** 
 1111              		.loc 1 590 9 is_stmt 0 view .LVU398
 1112 0040 C36C     		ldr	r3, [r0, #76]
 590:Drivers/STM32WBxx_HAL_Driver/Src/stm32wbxx_hal_dma.c **** 
 1113              		.loc 1 590 42 view .LVU399
 1114 0042 026D     		ldr	r2, [r0, #80]
 590:Drivers/STM32WBxx_HAL_Driver/Src/stm32wbxx_hal_dma.c **** 
 1115              		.loc 1 590 36 view .LVU400
 1116 0044 5A60     		str	r2, [r3, #4]
 592:Drivers/STM32WBxx_HAL_Driver/Src/stm32wbxx_hal_dma.c ****     {
 1117              		.loc 1 592 5 is_stmt 1 view .LVU401
 592:Drivers/STM32WBxx_HAL_Driver/Src/stm32wbxx_hal_dma.c ****     {
 1118              		.loc 1 592 13 is_stmt 0 view .LVU402
 1119 0046 436D     		ldr	r3, [r0, #84]
 592:Drivers/STM32WBxx_HAL_Driver/Src/stm32wbxx_hal_dma.c ****     {
 1120              		.loc 1 592 8 view .LVU403
 1121 0048 33B1     		cbz	r3, .L68
 596:Drivers/STM32WBxx_HAL_Driver/Src/stm32wbxx_hal_dma.c **** 
 1122              		.loc 1 596 7 is_stmt 1 view .LVU404
 596:Drivers/STM32WBxx_HAL_Driver/Src/stm32wbxx_hal_dma.c **** 
 1123              		.loc 1 596 29 is_stmt 0 view .LVU405
 1124 004a 1A68     		ldr	r2, [r3]
 596:Drivers/STM32WBxx_HAL_Driver/Src/stm32wbxx_hal_dma.c **** 
 1125              		.loc 1 596 36 view .LVU406
 1126 004c 22F48072 		bic	r2, r2, #256
 1127 0050 1A60     		str	r2, [r3]
 599:Drivers/STM32WBxx_HAL_Driver/Src/stm32wbxx_hal_dma.c ****     }
 1128              		.loc 1 599 7 is_stmt 1 view .LVU407
 599:Drivers/STM32WBxx_HAL_Driver/Src/stm32wbxx_hal_dma.c ****     }
 1129              		.loc 1 599 11 is_stmt 0 view .LVU408
 1130 0052 836D     		ldr	r3, [r0, #88]
 599:Drivers/STM32WBxx_HAL_Driver/Src/stm32wbxx_hal_dma.c ****     }
 1131              		.loc 1 599 49 view .LVU409
 1132 0054 C26D     		ldr	r2, [r0, #92]
 599:Drivers/STM32WBxx_HAL_Driver/Src/stm32wbxx_hal_dma.c ****     }
ARM GAS  C:\Users\Kevin\AppData\Local\Temp\ccg63WcD.s 			page 46


 1133              		.loc 1 599 43 view .LVU410
 1134 0056 5A60     		str	r2, [r3, #4]
 1135              	.L68:
 603:Drivers/STM32WBxx_HAL_Driver/Src/stm32wbxx_hal_dma.c **** 
 1136              		.loc 1 603 5 is_stmt 1 view .LVU411
 603:Drivers/STM32WBxx_HAL_Driver/Src/stm32wbxx_hal_dma.c **** 
 1137              		.loc 1 603 17 is_stmt 0 view .LVU412
 1138 0058 0123     		movs	r3, #1
 1139 005a 80F82530 		strb	r3, [r0, #37]
 606:Drivers/STM32WBxx_HAL_Driver/Src/stm32wbxx_hal_dma.c **** 
 1140              		.loc 1 606 5 is_stmt 1 view .LVU413
 606:Drivers/STM32WBxx_HAL_Driver/Src/stm32wbxx_hal_dma.c **** 
 1141              		.loc 1 606 5 view .LVU414
 1142 005e 0023     		movs	r3, #0
 1143 0060 80F82430 		strb	r3, [r0, #36]
 606:Drivers/STM32WBxx_HAL_Driver/Src/stm32wbxx_hal_dma.c **** 
 1144              		.loc 1 606 5 view .LVU415
 609:Drivers/STM32WBxx_HAL_Driver/Src/stm32wbxx_hal_dma.c ****     {
 1145              		.loc 1 609 5 view .LVU416
 609:Drivers/STM32WBxx_HAL_Driver/Src/stm32wbxx_hal_dma.c ****     {
 1146              		.loc 1 609 13 is_stmt 0 view .LVU417
 1147 0064 836B     		ldr	r3, [r0, #56]
 609:Drivers/STM32WBxx_HAL_Driver/Src/stm32wbxx_hal_dma.c ****     {
 1148              		.loc 1 609 8 view .LVU418
 1149 0066 13B1     		cbz	r3, .L69
 611:Drivers/STM32WBxx_HAL_Driver/Src/stm32wbxx_hal_dma.c ****     }
 1150              		.loc 1 611 7 is_stmt 1 view .LVU419
 1151 0068 9847     		blx	r3
 1152              	.LVL62:
 566:Drivers/STM32WBxx_HAL_Driver/Src/stm32wbxx_hal_dma.c **** 
 1153              		.loc 1 566 21 is_stmt 0 view .LVU420
 1154 006a 0020     		movs	r0, #0
 1155 006c D1E7     		b	.L67
 1156              	.LVL63:
 1157              	.L69:
 566:Drivers/STM32WBxx_HAL_Driver/Src/stm32wbxx_hal_dma.c **** 
 1158              		.loc 1 566 21 view .LVU421
 1159 006e 0020     		movs	r0, #0
 1160              	.LVL64:
 566:Drivers/STM32WBxx_HAL_Driver/Src/stm32wbxx_hal_dma.c **** 
 1161              		.loc 1 566 21 view .LVU422
 1162 0070 CFE7     		b	.L67
 1163              		.cfi_endproc
 1164              	.LFE955:
 1166              		.section	.text.HAL_DMA_PollForTransfer,"ax",%progbits
 1167              		.align	1
 1168              		.global	HAL_DMA_PollForTransfer
 1169              		.syntax unified
 1170              		.thumb
 1171              		.thumb_func
 1173              	HAL_DMA_PollForTransfer:
 1174              	.LVL65:
 1175              	.LFB956:
 627:Drivers/STM32WBxx_HAL_Driver/Src/stm32wbxx_hal_dma.c ****   uint32_t temp;
 1176              		.loc 1 627 1 is_stmt 1 view -0
 1177              		.cfi_startproc
 1178              		@ args = 0, pretend = 0, frame = 0
ARM GAS  C:\Users\Kevin\AppData\Local\Temp\ccg63WcD.s 			page 47


 1179              		@ frame_needed = 0, uses_anonymous_args = 0
 627:Drivers/STM32WBxx_HAL_Driver/Src/stm32wbxx_hal_dma.c ****   uint32_t temp;
 1180              		.loc 1 627 1 is_stmt 0 view .LVU424
 1181 0000 2DE9F041 		push	{r4, r5, r6, r7, r8, lr}
 1182              		.cfi_def_cfa_offset 24
 1183              		.cfi_offset 4, -24
 1184              		.cfi_offset 5, -20
 1185              		.cfi_offset 6, -16
 1186              		.cfi_offset 7, -12
 1187              		.cfi_offset 8, -8
 1188              		.cfi_offset 14, -4
 1189 0004 0446     		mov	r4, r0
 628:Drivers/STM32WBxx_HAL_Driver/Src/stm32wbxx_hal_dma.c ****   uint32_t tickstart;
 1190              		.loc 1 628 3 is_stmt 1 view .LVU425
 629:Drivers/STM32WBxx_HAL_Driver/Src/stm32wbxx_hal_dma.c **** 
 1191              		.loc 1 629 3 view .LVU426
 631:Drivers/STM32WBxx_HAL_Driver/Src/stm32wbxx_hal_dma.c ****   {
 1192              		.loc 1 631 3 view .LVU427
 631:Drivers/STM32WBxx_HAL_Driver/Src/stm32wbxx_hal_dma.c ****   {
 1193              		.loc 1 631 33 is_stmt 0 view .LVU428
 1194 0006 90F82530 		ldrb	r3, [r0, #37]	@ zero_extendqisi2
 1195 000a DBB2     		uxtb	r3, r3
 631:Drivers/STM32WBxx_HAL_Driver/Src/stm32wbxx_hal_dma.c ****   {
 1196              		.loc 1 631 6 view .LVU429
 1197 000c 022B     		cmp	r3, #2
 1198 000e 07D0     		beq	.L72
 634:Drivers/STM32WBxx_HAL_Driver/Src/stm32wbxx_hal_dma.c ****     __HAL_UNLOCK(hdma);
 1199              		.loc 1 634 5 is_stmt 1 view .LVU430
 634:Drivers/STM32WBxx_HAL_Driver/Src/stm32wbxx_hal_dma.c ****     __HAL_UNLOCK(hdma);
 1200              		.loc 1 634 21 is_stmt 0 view .LVU431
 1201 0010 0423     		movs	r3, #4
 1202 0012 C363     		str	r3, [r0, #60]
 635:Drivers/STM32WBxx_HAL_Driver/Src/stm32wbxx_hal_dma.c ****     return HAL_ERROR;
 1203              		.loc 1 635 5 is_stmt 1 view .LVU432
 635:Drivers/STM32WBxx_HAL_Driver/Src/stm32wbxx_hal_dma.c ****     return HAL_ERROR;
 1204              		.loc 1 635 5 view .LVU433
 1205 0014 0023     		movs	r3, #0
 1206 0016 80F82430 		strb	r3, [r0, #36]
 635:Drivers/STM32WBxx_HAL_Driver/Src/stm32wbxx_hal_dma.c ****     return HAL_ERROR;
 1207              		.loc 1 635 5 view .LVU434
 636:Drivers/STM32WBxx_HAL_Driver/Src/stm32wbxx_hal_dma.c ****   }
 1208              		.loc 1 636 5 view .LVU435
 636:Drivers/STM32WBxx_HAL_Driver/Src/stm32wbxx_hal_dma.c ****   }
 1209              		.loc 1 636 12 is_stmt 0 view .LVU436
 1210 001a 0120     		movs	r0, #1
 1211              	.LVL66:
 1212              	.L73:
 746:Drivers/STM32WBxx_HAL_Driver/Src/stm32wbxx_hal_dma.c **** 
 1213              		.loc 1 746 1 view .LVU437
 1214 001c BDE8F081 		pop	{r4, r5, r6, r7, r8, pc}
 1215              	.LVL67:
 1216              	.L72:
 746:Drivers/STM32WBxx_HAL_Driver/Src/stm32wbxx_hal_dma.c **** 
 1217              		.loc 1 746 1 view .LVU438
 1218 0020 0E46     		mov	r6, r1
 1219 0022 1546     		mov	r5, r2
 640:Drivers/STM32WBxx_HAL_Driver/Src/stm32wbxx_hal_dma.c ****   {
ARM GAS  C:\Users\Kevin\AppData\Local\Temp\ccg63WcD.s 			page 48


 1220              		.loc 1 640 3 is_stmt 1 view .LVU439
 640:Drivers/STM32WBxx_HAL_Driver/Src/stm32wbxx_hal_dma.c ****   {
 1221              		.loc 1 640 12 is_stmt 0 view .LVU440
 1222 0024 0368     		ldr	r3, [r0]
 640:Drivers/STM32WBxx_HAL_Driver/Src/stm32wbxx_hal_dma.c ****   {
 1223              		.loc 1 640 22 view .LVU441
 1224 0026 1B68     		ldr	r3, [r3]
 640:Drivers/STM32WBxx_HAL_Driver/Src/stm32wbxx_hal_dma.c ****   {
 1225              		.loc 1 640 6 view .LVU442
 1226 0028 13F0200F 		tst	r3, #32
 1227 002c 2BD1     		bne	.L86
 647:Drivers/STM32WBxx_HAL_Driver/Src/stm32wbxx_hal_dma.c ****   {
 1228              		.loc 1 647 3 is_stmt 1 view .LVU443
 647:Drivers/STM32WBxx_HAL_Driver/Src/stm32wbxx_hal_dma.c ****   {
 1229              		.loc 1 647 6 is_stmt 0 view .LVU444
 1230 002e 79BB     		cbnz	r1, .L75
 650:Drivers/STM32WBxx_HAL_Driver/Src/stm32wbxx_hal_dma.c ****   }
 1231              		.loc 1 650 5 is_stmt 1 view .LVU445
 650:Drivers/STM32WBxx_HAL_Driver/Src/stm32wbxx_hal_dma.c ****   }
 1232              		.loc 1 650 33 is_stmt 0 view .LVU446
 1233 0030 436C     		ldr	r3, [r0, #68]
 650:Drivers/STM32WBxx_HAL_Driver/Src/stm32wbxx_hal_dma.c ****   }
 1234              		.loc 1 650 48 view .LVU447
 1235 0032 03F01C03 		and	r3, r3, #28
 650:Drivers/STM32WBxx_HAL_Driver/Src/stm32wbxx_hal_dma.c ****   }
 1236              		.loc 1 650 10 view .LVU448
 1237 0036 0227     		movs	r7, #2
 1238 0038 9F40     		lsls	r7, r7, r3
 1239              	.LVL68:
 1240              	.L76:
 659:Drivers/STM32WBxx_HAL_Driver/Src/stm32wbxx_hal_dma.c **** 
 1241              		.loc 1 659 3 is_stmt 1 view .LVU449
 659:Drivers/STM32WBxx_HAL_Driver/Src/stm32wbxx_hal_dma.c **** 
 1242              		.loc 1 659 15 is_stmt 0 view .LVU450
 1243 003a FFF7FEFF 		bl	HAL_GetTick
 1244              	.LVL69:
 659:Drivers/STM32WBxx_HAL_Driver/Src/stm32wbxx_hal_dma.c **** 
 1245              		.loc 1 659 15 view .LVU451
 1246 003e 8046     		mov	r8, r0
 1247              	.LVL70:
 661:Drivers/STM32WBxx_HAL_Driver/Src/stm32wbxx_hal_dma.c ****   {
 1248              		.loc 1 661 3 is_stmt 1 view .LVU452
 1249              	.L79:
 661:Drivers/STM32WBxx_HAL_Driver/Src/stm32wbxx_hal_dma.c ****   {
 1250              		.loc 1 661 45 view .LVU453
 661:Drivers/STM32WBxx_HAL_Driver/Src/stm32wbxx_hal_dma.c ****   {
 1251              		.loc 1 661 15 is_stmt 0 view .LVU454
 1252 0040 226C     		ldr	r2, [r4, #64]
 661:Drivers/STM32WBxx_HAL_Driver/Src/stm32wbxx_hal_dma.c ****   {
 1253              		.loc 1 661 31 view .LVU455
 1254 0042 1368     		ldr	r3, [r2]
 661:Drivers/STM32WBxx_HAL_Driver/Src/stm32wbxx_hal_dma.c ****   {
 1255              		.loc 1 661 45 view .LVU456
 1256 0044 3B42     		tst	r3, r7
 1257 0046 34D1     		bne	.L87
 663:Drivers/STM32WBxx_HAL_Driver/Src/stm32wbxx_hal_dma.c ****     {
 1258              		.loc 1 663 5 is_stmt 1 view .LVU457
ARM GAS  C:\Users\Kevin\AppData\Local\Temp\ccg63WcD.s 			page 49


 663:Drivers/STM32WBxx_HAL_Driver/Src/stm32wbxx_hal_dma.c ****     {
 1259              		.loc 1 663 30 is_stmt 0 view .LVU458
 1260 0048 1168     		ldr	r1, [r2]
 663:Drivers/STM32WBxx_HAL_Driver/Src/stm32wbxx_hal_dma.c ****     {
 1261              		.loc 1 663 60 view .LVU459
 1262 004a 636C     		ldr	r3, [r4, #68]
 663:Drivers/STM32WBxx_HAL_Driver/Src/stm32wbxx_hal_dma.c ****     {
 1263              		.loc 1 663 75 view .LVU460
 1264 004c 03F01C03 		and	r3, r3, #28
 663:Drivers/STM32WBxx_HAL_Driver/Src/stm32wbxx_hal_dma.c ****     {
 1265              		.loc 1 663 52 view .LVU461
 1266 0050 4FF0080C 		mov	ip, #8
 1267 0054 0CFA03FC 		lsl	ip, ip, r3
 663:Drivers/STM32WBxx_HAL_Driver/Src/stm32wbxx_hal_dma.c ****     {
 1268              		.loc 1 663 8 view .LVU462
 1269 0058 11EA0C0F 		tst	r1, ip
 1270 005c 1ED1     		bne	.L88
 682:Drivers/STM32WBxx_HAL_Driver/Src/stm32wbxx_hal_dma.c ****     {
 1271              		.loc 1 682 5 is_stmt 1 view .LVU463
 682:Drivers/STM32WBxx_HAL_Driver/Src/stm32wbxx_hal_dma.c ****     {
 1272              		.loc 1 682 8 is_stmt 0 view .LVU464
 1273 005e B5F1FF3F 		cmp	r5, #-1
 1274 0062 EDD0     		beq	.L79
 684:Drivers/STM32WBxx_HAL_Driver/Src/stm32wbxx_hal_dma.c ****       {
 1275              		.loc 1 684 7 is_stmt 1 view .LVU465
 684:Drivers/STM32WBxx_HAL_Driver/Src/stm32wbxx_hal_dma.c ****       {
 1276              		.loc 1 684 13 is_stmt 0 view .LVU466
 1277 0064 FFF7FEFF 		bl	HAL_GetTick
 1278              	.LVL71:
 684:Drivers/STM32WBxx_HAL_Driver/Src/stm32wbxx_hal_dma.c ****       {
 1279              		.loc 1 684 27 view .LVU467
 1280 0068 A0EB0800 		sub	r0, r0, r8
 684:Drivers/STM32WBxx_HAL_Driver/Src/stm32wbxx_hal_dma.c ****       {
 1281              		.loc 1 684 10 view .LVU468
 1282 006c A842     		cmp	r0, r5
 1283 006e 01D8     		bhi	.L80
 684:Drivers/STM32WBxx_HAL_Driver/Src/stm32wbxx_hal_dma.c ****       {
 1284              		.loc 1 684 51 discriminator 1 view .LVU469
 1285 0070 002D     		cmp	r5, #0
 1286 0072 E5D1     		bne	.L79
 1287              	.L80:
 687:Drivers/STM32WBxx_HAL_Driver/Src/stm32wbxx_hal_dma.c **** 
 1288              		.loc 1 687 9 is_stmt 1 view .LVU470
 687:Drivers/STM32WBxx_HAL_Driver/Src/stm32wbxx_hal_dma.c **** 
 1289              		.loc 1 687 25 is_stmt 0 view .LVU471
 1290 0074 2023     		movs	r3, #32
 1291 0076 E363     		str	r3, [r4, #60]
 690:Drivers/STM32WBxx_HAL_Driver/Src/stm32wbxx_hal_dma.c **** 
 1292              		.loc 1 690 9 is_stmt 1 view .LVU472
 690:Drivers/STM32WBxx_HAL_Driver/Src/stm32wbxx_hal_dma.c **** 
 1293              		.loc 1 690 21 is_stmt 0 view .LVU473
 1294 0078 0120     		movs	r0, #1
 1295 007a 84F82500 		strb	r0, [r4, #37]
 693:Drivers/STM32WBxx_HAL_Driver/Src/stm32wbxx_hal_dma.c **** 
 1296              		.loc 1 693 9 is_stmt 1 view .LVU474
 693:Drivers/STM32WBxx_HAL_Driver/Src/stm32wbxx_hal_dma.c **** 
 1297              		.loc 1 693 9 view .LVU475
ARM GAS  C:\Users\Kevin\AppData\Local\Temp\ccg63WcD.s 			page 50


 1298 007e 0023     		movs	r3, #0
 1299 0080 84F82430 		strb	r3, [r4, #36]
 693:Drivers/STM32WBxx_HAL_Driver/Src/stm32wbxx_hal_dma.c **** 
 1300              		.loc 1 693 9 view .LVU476
 695:Drivers/STM32WBxx_HAL_Driver/Src/stm32wbxx_hal_dma.c ****       }
 1301              		.loc 1 695 9 view .LVU477
 695:Drivers/STM32WBxx_HAL_Driver/Src/stm32wbxx_hal_dma.c ****       }
 1302              		.loc 1 695 16 is_stmt 0 view .LVU478
 1303 0084 CAE7     		b	.L73
 1304              	.LVL72:
 1305              	.L86:
 642:Drivers/STM32WBxx_HAL_Driver/Src/stm32wbxx_hal_dma.c ****     return HAL_ERROR;
 1306              		.loc 1 642 5 is_stmt 1 view .LVU479
 642:Drivers/STM32WBxx_HAL_Driver/Src/stm32wbxx_hal_dma.c ****     return HAL_ERROR;
 1307              		.loc 1 642 21 is_stmt 0 view .LVU480
 1308 0086 4FF48073 		mov	r3, #256
 1309 008a C363     		str	r3, [r0, #60]
 643:Drivers/STM32WBxx_HAL_Driver/Src/stm32wbxx_hal_dma.c ****   }
 1310              		.loc 1 643 5 is_stmt 1 view .LVU481
 643:Drivers/STM32WBxx_HAL_Driver/Src/stm32wbxx_hal_dma.c ****   }
 1311              		.loc 1 643 12 is_stmt 0 view .LVU482
 1312 008c 0120     		movs	r0, #1
 1313              	.LVL73:
 643:Drivers/STM32WBxx_HAL_Driver/Src/stm32wbxx_hal_dma.c ****   }
 1314              		.loc 1 643 12 view .LVU483
 1315 008e C5E7     		b	.L73
 1316              	.LVL74:
 1317              	.L75:
 655:Drivers/STM32WBxx_HAL_Driver/Src/stm32wbxx_hal_dma.c ****   }
 1318              		.loc 1 655 5 is_stmt 1 view .LVU484
 655:Drivers/STM32WBxx_HAL_Driver/Src/stm32wbxx_hal_dma.c ****   }
 1319              		.loc 1 655 33 is_stmt 0 view .LVU485
 1320 0090 436C     		ldr	r3, [r0, #68]
 655:Drivers/STM32WBxx_HAL_Driver/Src/stm32wbxx_hal_dma.c ****   }
 1321              		.loc 1 655 49 view .LVU486
 1322 0092 03F01C03 		and	r3, r3, #28
 655:Drivers/STM32WBxx_HAL_Driver/Src/stm32wbxx_hal_dma.c ****   }
 1323              		.loc 1 655 10 view .LVU487
 1324 0096 0427     		movs	r7, #4
 1325 0098 9F40     		lsls	r7, r7, r3
 1326              	.LVL75:
 655:Drivers/STM32WBxx_HAL_Driver/Src/stm32wbxx_hal_dma.c ****   }
 1327              		.loc 1 655 10 view .LVU488
 1328 009a CEE7     		b	.L76
 1329              	.LVL76:
 1330              	.L88:
 668:Drivers/STM32WBxx_HAL_Driver/Src/stm32wbxx_hal_dma.c **** 
 1331              		.loc 1 668 7 is_stmt 1 view .LVU489
 668:Drivers/STM32WBxx_HAL_Driver/Src/stm32wbxx_hal_dma.c **** 
 1332              		.loc 1 668 50 is_stmt 0 view .LVU490
 1333 009c 0120     		movs	r0, #1
 1334 009e 00FA03F3 		lsl	r3, r0, r3
 668:Drivers/STM32WBxx_HAL_Driver/Src/stm32wbxx_hal_dma.c **** 
 1335              		.loc 1 668 34 view .LVU491
 1336 00a2 5360     		str	r3, [r2, #4]
 671:Drivers/STM32WBxx_HAL_Driver/Src/stm32wbxx_hal_dma.c **** 
 1337              		.loc 1 671 7 is_stmt 1 view .LVU492
ARM GAS  C:\Users\Kevin\AppData\Local\Temp\ccg63WcD.s 			page 51


 671:Drivers/STM32WBxx_HAL_Driver/Src/stm32wbxx_hal_dma.c **** 
 1338              		.loc 1 671 23 is_stmt 0 view .LVU493
 1339 00a4 E063     		str	r0, [r4, #60]
 674:Drivers/STM32WBxx_HAL_Driver/Src/stm32wbxx_hal_dma.c **** 
 1340              		.loc 1 674 7 is_stmt 1 view .LVU494
 674:Drivers/STM32WBxx_HAL_Driver/Src/stm32wbxx_hal_dma.c **** 
 1341              		.loc 1 674 19 is_stmt 0 view .LVU495
 1342 00a6 84F82500 		strb	r0, [r4, #37]
 677:Drivers/STM32WBxx_HAL_Driver/Src/stm32wbxx_hal_dma.c **** 
 1343              		.loc 1 677 7 is_stmt 1 view .LVU496
 677:Drivers/STM32WBxx_HAL_Driver/Src/stm32wbxx_hal_dma.c **** 
 1344              		.loc 1 677 7 view .LVU497
 1345 00aa 0023     		movs	r3, #0
 1346 00ac 84F82430 		strb	r3, [r4, #36]
 677:Drivers/STM32WBxx_HAL_Driver/Src/stm32wbxx_hal_dma.c **** 
 1347              		.loc 1 677 7 view .LVU498
 679:Drivers/STM32WBxx_HAL_Driver/Src/stm32wbxx_hal_dma.c ****     }
 1348              		.loc 1 679 7 view .LVU499
 679:Drivers/STM32WBxx_HAL_Driver/Src/stm32wbxx_hal_dma.c ****     }
 1349              		.loc 1 679 14 is_stmt 0 view .LVU500
 1350 00b0 B4E7     		b	.L73
 1351              	.L87:
 701:Drivers/STM32WBxx_HAL_Driver/Src/stm32wbxx_hal_dma.c ****   {
 1352              		.loc 1 701 3 is_stmt 1 view .LVU501
 701:Drivers/STM32WBxx_HAL_Driver/Src/stm32wbxx_hal_dma.c ****   {
 1353              		.loc 1 701 11 is_stmt 0 view .LVU502
 1354 00b2 636D     		ldr	r3, [r4, #84]
 701:Drivers/STM32WBxx_HAL_Driver/Src/stm32wbxx_hal_dma.c ****   {
 1355              		.loc 1 701 6 view .LVU503
 1356 00b4 7BB1     		cbz	r3, .L82
 704:Drivers/STM32WBxx_HAL_Driver/Src/stm32wbxx_hal_dma.c ****     {
 1357              		.loc 1 704 5 is_stmt 1 view .LVU504
 704:Drivers/STM32WBxx_HAL_Driver/Src/stm32wbxx_hal_dma.c ****     {
 1358              		.loc 1 704 14 is_stmt 0 view .LVU505
 1359 00b6 A26D     		ldr	r2, [r4, #88]
 704:Drivers/STM32WBxx_HAL_Driver/Src/stm32wbxx_hal_dma.c ****     {
 1360              		.loc 1 704 38 view .LVU506
 1361 00b8 1168     		ldr	r1, [r2]
 704:Drivers/STM32WBxx_HAL_Driver/Src/stm32wbxx_hal_dma.c ****     {
 1362              		.loc 1 704 51 view .LVU507
 1363 00ba E26D     		ldr	r2, [r4, #92]
 704:Drivers/STM32WBxx_HAL_Driver/Src/stm32wbxx_hal_dma.c ****     {
 1364              		.loc 1 704 8 view .LVU508
 1365 00bc 1142     		tst	r1, r2
 1366 00be 0AD0     		beq	.L82
 707:Drivers/STM32WBxx_HAL_Driver/Src/stm32wbxx_hal_dma.c **** 
 1367              		.loc 1 707 7 is_stmt 1 view .LVU509
 707:Drivers/STM32WBxx_HAL_Driver/Src/stm32wbxx_hal_dma.c **** 
 1368              		.loc 1 707 29 is_stmt 0 view .LVU510
 1369 00c0 1A68     		ldr	r2, [r3]
 707:Drivers/STM32WBxx_HAL_Driver/Src/stm32wbxx_hal_dma.c **** 
 1370              		.loc 1 707 36 view .LVU511
 1371 00c2 42F48072 		orr	r2, r2, #256
 1372 00c6 1A60     		str	r2, [r3]
 710:Drivers/STM32WBxx_HAL_Driver/Src/stm32wbxx_hal_dma.c **** 
 1373              		.loc 1 710 7 is_stmt 1 view .LVU512
 710:Drivers/STM32WBxx_HAL_Driver/Src/stm32wbxx_hal_dma.c **** 
ARM GAS  C:\Users\Kevin\AppData\Local\Temp\ccg63WcD.s 			page 52


 1374              		.loc 1 710 11 is_stmt 0 view .LVU513
 1375 00c8 A36D     		ldr	r3, [r4, #88]
 710:Drivers/STM32WBxx_HAL_Driver/Src/stm32wbxx_hal_dma.c **** 
 1376              		.loc 1 710 49 view .LVU514
 1377 00ca E26D     		ldr	r2, [r4, #92]
 710:Drivers/STM32WBxx_HAL_Driver/Src/stm32wbxx_hal_dma.c **** 
 1378              		.loc 1 710 43 view .LVU515
 1379 00cc 5A60     		str	r2, [r3, #4]
 713:Drivers/STM32WBxx_HAL_Driver/Src/stm32wbxx_hal_dma.c ****     }
 1380              		.loc 1 713 7 is_stmt 1 view .LVU516
 713:Drivers/STM32WBxx_HAL_Driver/Src/stm32wbxx_hal_dma.c ****     }
 1381              		.loc 1 713 11 is_stmt 0 view .LVU517
 1382 00ce E36B     		ldr	r3, [r4, #60]
 713:Drivers/STM32WBxx_HAL_Driver/Src/stm32wbxx_hal_dma.c ****     }
 1383              		.loc 1 713 23 view .LVU518
 1384 00d0 43F48063 		orr	r3, r3, #1024
 1385 00d4 E363     		str	r3, [r4, #60]
 1386              	.L82:
 718:Drivers/STM32WBxx_HAL_Driver/Src/stm32wbxx_hal_dma.c ****   {
 1387              		.loc 1 718 3 is_stmt 1 view .LVU519
 718:Drivers/STM32WBxx_HAL_Driver/Src/stm32wbxx_hal_dma.c ****   {
 1388              		.loc 1 718 12 is_stmt 0 view .LVU520
 1389 00d6 E36C     		ldr	r3, [r4, #76]
 718:Drivers/STM32WBxx_HAL_Driver/Src/stm32wbxx_hal_dma.c ****   {
 1390              		.loc 1 718 33 view .LVU521
 1391 00d8 1968     		ldr	r1, [r3]
 718:Drivers/STM32WBxx_HAL_Driver/Src/stm32wbxx_hal_dma.c ****   {
 1392              		.loc 1 718 45 view .LVU522
 1393 00da 226D     		ldr	r2, [r4, #80]
 718:Drivers/STM32WBxx_HAL_Driver/Src/stm32wbxx_hal_dma.c ****   {
 1394              		.loc 1 718 6 view .LVU523
 1395 00dc 1142     		tst	r1, r2
 1396 00de 04D0     		beq	.L83
 721:Drivers/STM32WBxx_HAL_Driver/Src/stm32wbxx_hal_dma.c **** 
 1397              		.loc 1 721 5 is_stmt 1 view .LVU524
 721:Drivers/STM32WBxx_HAL_Driver/Src/stm32wbxx_hal_dma.c **** 
 1398              		.loc 1 721 36 is_stmt 0 view .LVU525
 1399 00e0 5A60     		str	r2, [r3, #4]
 724:Drivers/STM32WBxx_HAL_Driver/Src/stm32wbxx_hal_dma.c ****   }
 1400              		.loc 1 724 5 is_stmt 1 view .LVU526
 724:Drivers/STM32WBxx_HAL_Driver/Src/stm32wbxx_hal_dma.c ****   }
 1401              		.loc 1 724 9 is_stmt 0 view .LVU527
 1402 00e2 E36B     		ldr	r3, [r4, #60]
 724:Drivers/STM32WBxx_HAL_Driver/Src/stm32wbxx_hal_dma.c ****   }
 1403              		.loc 1 724 21 view .LVU528
 1404 00e4 43F40073 		orr	r3, r3, #512
 1405 00e8 E363     		str	r3, [r4, #60]
 1406              	.L83:
 727:Drivers/STM32WBxx_HAL_Driver/Src/stm32wbxx_hal_dma.c ****   {
 1407              		.loc 1 727 3 is_stmt 1 view .LVU529
 727:Drivers/STM32WBxx_HAL_Driver/Src/stm32wbxx_hal_dma.c ****   {
 1408              		.loc 1 727 6 is_stmt 0 view .LVU530
 1409 00ea 76B9     		cbnz	r6, .L84
 730:Drivers/STM32WBxx_HAL_Driver/Src/stm32wbxx_hal_dma.c **** 
 1410              		.loc 1 730 5 is_stmt 1 view .LVU531
 730:Drivers/STM32WBxx_HAL_Driver/Src/stm32wbxx_hal_dma.c **** 
 1411              		.loc 1 730 56 is_stmt 0 view .LVU532
ARM GAS  C:\Users\Kevin\AppData\Local\Temp\ccg63WcD.s 			page 53


 1412 00ec 636C     		ldr	r3, [r4, #68]
 730:Drivers/STM32WBxx_HAL_Driver/Src/stm32wbxx_hal_dma.c **** 
 1413              		.loc 1 730 71 view .LVU533
 1414 00ee 03F01C02 		and	r2, r3, #28
 730:Drivers/STM32WBxx_HAL_Driver/Src/stm32wbxx_hal_dma.c **** 
 1415              		.loc 1 730 9 view .LVU534
 1416 00f2 216C     		ldr	r1, [r4, #64]
 730:Drivers/STM32WBxx_HAL_Driver/Src/stm32wbxx_hal_dma.c **** 
 1417              		.loc 1 730 48 view .LVU535
 1418 00f4 0223     		movs	r3, #2
 1419 00f6 9340     		lsls	r3, r3, r2
 730:Drivers/STM32WBxx_HAL_Driver/Src/stm32wbxx_hal_dma.c **** 
 1420              		.loc 1 730 32 view .LVU536
 1421 00f8 4B60     		str	r3, [r1, #4]
 733:Drivers/STM32WBxx_HAL_Driver/Src/stm32wbxx_hal_dma.c **** 
 1422              		.loc 1 733 5 is_stmt 1 view .LVU537
 733:Drivers/STM32WBxx_HAL_Driver/Src/stm32wbxx_hal_dma.c **** 
 1423              		.loc 1 733 5 view .LVU538
 1424 00fa 0023     		movs	r3, #0
 1425 00fc 84F82430 		strb	r3, [r4, #36]
 733:Drivers/STM32WBxx_HAL_Driver/Src/stm32wbxx_hal_dma.c **** 
 1426              		.loc 1 733 5 view .LVU539
 737:Drivers/STM32WBxx_HAL_Driver/Src/stm32wbxx_hal_dma.c ****   }
 1427              		.loc 1 737 5 view .LVU540
 737:Drivers/STM32WBxx_HAL_Driver/Src/stm32wbxx_hal_dma.c ****   }
 1428              		.loc 1 737 17 is_stmt 0 view .LVU541
 1429 0100 0123     		movs	r3, #1
 1430 0102 84F82530 		strb	r3, [r4, #37]
 745:Drivers/STM32WBxx_HAL_Driver/Src/stm32wbxx_hal_dma.c **** }
 1431              		.loc 1 745 10 view .LVU542
 1432 0106 3046     		mov	r0, r6
 1433 0108 88E7     		b	.L73
 1434              	.L84:
 742:Drivers/STM32WBxx_HAL_Driver/Src/stm32wbxx_hal_dma.c ****   }
 1435              		.loc 1 742 5 is_stmt 1 view .LVU543
 742:Drivers/STM32WBxx_HAL_Driver/Src/stm32wbxx_hal_dma.c ****   }
 1436              		.loc 1 742 56 is_stmt 0 view .LVU544
 1437 010a 636C     		ldr	r3, [r4, #68]
 742:Drivers/STM32WBxx_HAL_Driver/Src/stm32wbxx_hal_dma.c ****   }
 1438              		.loc 1 742 71 view .LVU545
 1439 010c 03F01C02 		and	r2, r3, #28
 742:Drivers/STM32WBxx_HAL_Driver/Src/stm32wbxx_hal_dma.c ****   }
 1440              		.loc 1 742 9 view .LVU546
 1441 0110 216C     		ldr	r1, [r4, #64]
 742:Drivers/STM32WBxx_HAL_Driver/Src/stm32wbxx_hal_dma.c ****   }
 1442              		.loc 1 742 48 view .LVU547
 1443 0112 0423     		movs	r3, #4
 1444 0114 9340     		lsls	r3, r3, r2
 742:Drivers/STM32WBxx_HAL_Driver/Src/stm32wbxx_hal_dma.c ****   }
 1445              		.loc 1 742 32 view .LVU548
 1446 0116 4B60     		str	r3, [r1, #4]
 745:Drivers/STM32WBxx_HAL_Driver/Src/stm32wbxx_hal_dma.c **** }
 1447              		.loc 1 745 10 view .LVU549
 1448 0118 0020     		movs	r0, #0
 1449 011a 7FE7     		b	.L73
 1450              		.cfi_endproc
 1451              	.LFE956:
ARM GAS  C:\Users\Kevin\AppData\Local\Temp\ccg63WcD.s 			page 54


 1453              		.section	.text.HAL_DMA_IRQHandler,"ax",%progbits
 1454              		.align	1
 1455              		.global	HAL_DMA_IRQHandler
 1456              		.syntax unified
 1457              		.thumb
 1458              		.thumb_func
 1460              	HAL_DMA_IRQHandler:
 1461              	.LVL77:
 1462              	.LFB957:
 755:Drivers/STM32WBxx_HAL_Driver/Src/stm32wbxx_hal_dma.c ****   uint32_t flag_it = hdma->DmaBaseAddress->ISR;
 1463              		.loc 1 755 1 is_stmt 1 view -0
 1464              		.cfi_startproc
 1465              		@ args = 0, pretend = 0, frame = 0
 1466              		@ frame_needed = 0, uses_anonymous_args = 0
 755:Drivers/STM32WBxx_HAL_Driver/Src/stm32wbxx_hal_dma.c ****   uint32_t flag_it = hdma->DmaBaseAddress->ISR;
 1467              		.loc 1 755 1 is_stmt 0 view .LVU551
 1468 0000 38B5     		push	{r3, r4, r5, lr}
 1469              		.cfi_def_cfa_offset 16
 1470              		.cfi_offset 3, -16
 1471              		.cfi_offset 4, -12
 1472              		.cfi_offset 5, -8
 1473              		.cfi_offset 14, -4
 756:Drivers/STM32WBxx_HAL_Driver/Src/stm32wbxx_hal_dma.c ****   uint32_t source_it = hdma->Instance->CCR;
 1474              		.loc 1 756 3 is_stmt 1 view .LVU552
 756:Drivers/STM32WBxx_HAL_Driver/Src/stm32wbxx_hal_dma.c ****   uint32_t source_it = hdma->Instance->CCR;
 1475              		.loc 1 756 26 is_stmt 0 view .LVU553
 1476 0002 036C     		ldr	r3, [r0, #64]
 756:Drivers/STM32WBxx_HAL_Driver/Src/stm32wbxx_hal_dma.c ****   uint32_t source_it = hdma->Instance->CCR;
 1477              		.loc 1 756 12 view .LVU554
 1478 0004 1968     		ldr	r1, [r3]
 1479              	.LVL78:
 757:Drivers/STM32WBxx_HAL_Driver/Src/stm32wbxx_hal_dma.c **** 
 1480              		.loc 1 757 3 is_stmt 1 view .LVU555
 757:Drivers/STM32WBxx_HAL_Driver/Src/stm32wbxx_hal_dma.c **** 
 1481              		.loc 1 757 28 is_stmt 0 view .LVU556
 1482 0006 0468     		ldr	r4, [r0]
 757:Drivers/STM32WBxx_HAL_Driver/Src/stm32wbxx_hal_dma.c **** 
 1483              		.loc 1 757 12 view .LVU557
 1484 0008 2568     		ldr	r5, [r4]
 1485              	.LVL79:
 760:Drivers/STM32WBxx_HAL_Driver/Src/stm32wbxx_hal_dma.c ****   {
 1486              		.loc 1 760 3 is_stmt 1 view .LVU558
 760:Drivers/STM32WBxx_HAL_Driver/Src/stm32wbxx_hal_dma.c ****   {
 1487              		.loc 1 760 41 is_stmt 0 view .LVU559
 1488 000a 436C     		ldr	r3, [r0, #68]
 760:Drivers/STM32WBxx_HAL_Driver/Src/stm32wbxx_hal_dma.c ****   {
 1489              		.loc 1 760 56 view .LVU560
 1490 000c 03F01C03 		and	r3, r3, #28
 760:Drivers/STM32WBxx_HAL_Driver/Src/stm32wbxx_hal_dma.c ****   {
 1491              		.loc 1 760 33 view .LVU561
 1492 0010 0422     		movs	r2, #4
 1493 0012 9A40     		lsls	r2, r2, r3
 760:Drivers/STM32WBxx_HAL_Driver/Src/stm32wbxx_hal_dma.c ****   {
 1494              		.loc 1 760 6 view .LVU562
 1495 0014 0A42     		tst	r2, r1
 1496 0016 15D0     		beq	.L90
 760:Drivers/STM32WBxx_HAL_Driver/Src/stm32wbxx_hal_dma.c ****   {
ARM GAS  C:\Users\Kevin\AppData\Local\Temp\ccg63WcD.s 			page 55


 1497              		.loc 1 760 74 discriminator 1 view .LVU563
 1498 0018 15F0040F 		tst	r5, #4
 1499 001c 12D0     		beq	.L90
 763:Drivers/STM32WBxx_HAL_Driver/Src/stm32wbxx_hal_dma.c ****     {
 1500              		.loc 1 763 5 is_stmt 1 view .LVU564
 763:Drivers/STM32WBxx_HAL_Driver/Src/stm32wbxx_hal_dma.c ****     {
 1501              		.loc 1 763 24 is_stmt 0 view .LVU565
 1502 001e 2368     		ldr	r3, [r4]
 763:Drivers/STM32WBxx_HAL_Driver/Src/stm32wbxx_hal_dma.c ****     {
 1503              		.loc 1 763 8 view .LVU566
 1504 0020 13F0200F 		tst	r3, #32
 1505 0024 03D1     		bne	.L91
 766:Drivers/STM32WBxx_HAL_Driver/Src/stm32wbxx_hal_dma.c ****     }
 1506              		.loc 1 766 7 is_stmt 1 view .LVU567
 1507 0026 2368     		ldr	r3, [r4]
 1508 0028 23F00403 		bic	r3, r3, #4
 1509 002c 2360     		str	r3, [r4]
 1510              	.L91:
 769:Drivers/STM32WBxx_HAL_Driver/Src/stm32wbxx_hal_dma.c **** 
 1511              		.loc 1 769 5 view .LVU568
 769:Drivers/STM32WBxx_HAL_Driver/Src/stm32wbxx_hal_dma.c **** 
 1512              		.loc 1 769 57 is_stmt 0 view .LVU569
 1513 002e 436C     		ldr	r3, [r0, #68]
 769:Drivers/STM32WBxx_HAL_Driver/Src/stm32wbxx_hal_dma.c **** 
 1514              		.loc 1 769 72 view .LVU570
 1515 0030 03F01C02 		and	r2, r3, #28
 769:Drivers/STM32WBxx_HAL_Driver/Src/stm32wbxx_hal_dma.c **** 
 1516              		.loc 1 769 9 view .LVU571
 1517 0034 016C     		ldr	r1, [r0, #64]
 1518              	.LVL80:
 769:Drivers/STM32WBxx_HAL_Driver/Src/stm32wbxx_hal_dma.c **** 
 1519              		.loc 1 769 49 view .LVU572
 1520 0036 0423     		movs	r3, #4
 1521 0038 9340     		lsls	r3, r3, r2
 769:Drivers/STM32WBxx_HAL_Driver/Src/stm32wbxx_hal_dma.c **** 
 1522              		.loc 1 769 32 view .LVU573
 1523 003a 4B60     		str	r3, [r1, #4]
 774:Drivers/STM32WBxx_HAL_Driver/Src/stm32wbxx_hal_dma.c ****     {
 1524              		.loc 1 774 5 is_stmt 1 view .LVU574
 774:Drivers/STM32WBxx_HAL_Driver/Src/stm32wbxx_hal_dma.c ****     {
 1525              		.loc 1 774 13 is_stmt 0 view .LVU575
 1526 003c 036B     		ldr	r3, [r0, #48]
 774:Drivers/STM32WBxx_HAL_Driver/Src/stm32wbxx_hal_dma.c ****     {
 1527              		.loc 1 774 8 view .LVU576
 1528 003e 03B1     		cbz	r3, .L89
 777:Drivers/STM32WBxx_HAL_Driver/Src/stm32wbxx_hal_dma.c ****     }
 1529              		.loc 1 777 7 is_stmt 1 view .LVU577
 1530 0040 9847     		blx	r3
 1531              	.LVL81:
 1532              	.L89:
 836:Drivers/STM32WBxx_HAL_Driver/Src/stm32wbxx_hal_dma.c **** 
 1533              		.loc 1 836 1 is_stmt 0 view .LVU578
 1534 0042 38BD     		pop	{r3, r4, r5, pc}
 1535              	.LVL82:
 1536              	.L90:
 782:Drivers/STM32WBxx_HAL_Driver/Src/stm32wbxx_hal_dma.c ****   {
 1537              		.loc 1 782 8 is_stmt 1 view .LVU579
ARM GAS  C:\Users\Kevin\AppData\Local\Temp\ccg63WcD.s 			page 56


 782:Drivers/STM32WBxx_HAL_Driver/Src/stm32wbxx_hal_dma.c ****   {
 1538              		.loc 1 782 38 is_stmt 0 view .LVU580
 1539 0044 0222     		movs	r2, #2
 1540 0046 9A40     		lsls	r2, r2, r3
 782:Drivers/STM32WBxx_HAL_Driver/Src/stm32wbxx_hal_dma.c ****   {
 1541              		.loc 1 782 11 view .LVU581
 1542 0048 0A42     		tst	r2, r1
 1543 004a 1CD0     		beq	.L93
 782:Drivers/STM32WBxx_HAL_Driver/Src/stm32wbxx_hal_dma.c ****   {
 1544              		.loc 1 782 79 discriminator 1 view .LVU582
 1545 004c 15F0020F 		tst	r5, #2
 1546 0050 19D0     		beq	.L93
 784:Drivers/STM32WBxx_HAL_Driver/Src/stm32wbxx_hal_dma.c ****     {
 1547              		.loc 1 784 5 is_stmt 1 view .LVU583
 784:Drivers/STM32WBxx_HAL_Driver/Src/stm32wbxx_hal_dma.c ****     {
 1548              		.loc 1 784 24 is_stmt 0 view .LVU584
 1549 0052 2368     		ldr	r3, [r4]
 784:Drivers/STM32WBxx_HAL_Driver/Src/stm32wbxx_hal_dma.c ****     {
 1550              		.loc 1 784 8 view .LVU585
 1551 0054 13F0200F 		tst	r3, #32
 1552 0058 06D1     		bne	.L94
 787:Drivers/STM32WBxx_HAL_Driver/Src/stm32wbxx_hal_dma.c **** 
 1553              		.loc 1 787 7 is_stmt 1 view .LVU586
 1554 005a 2368     		ldr	r3, [r4]
 1555 005c 23F00A03 		bic	r3, r3, #10
 1556 0060 2360     		str	r3, [r4]
 790:Drivers/STM32WBxx_HAL_Driver/Src/stm32wbxx_hal_dma.c ****     }
 1557              		.loc 1 790 7 view .LVU587
 790:Drivers/STM32WBxx_HAL_Driver/Src/stm32wbxx_hal_dma.c ****     }
 1558              		.loc 1 790 19 is_stmt 0 view .LVU588
 1559 0062 0123     		movs	r3, #1
 1560 0064 80F82530 		strb	r3, [r0, #37]
 1561              	.L94:
 793:Drivers/STM32WBxx_HAL_Driver/Src/stm32wbxx_hal_dma.c **** 
 1562              		.loc 1 793 5 is_stmt 1 view .LVU589
 793:Drivers/STM32WBxx_HAL_Driver/Src/stm32wbxx_hal_dma.c **** 
 1563              		.loc 1 793 57 is_stmt 0 view .LVU590
 1564 0068 436C     		ldr	r3, [r0, #68]
 793:Drivers/STM32WBxx_HAL_Driver/Src/stm32wbxx_hal_dma.c **** 
 1565              		.loc 1 793 72 view .LVU591
 1566 006a 03F01C02 		and	r2, r3, #28
 793:Drivers/STM32WBxx_HAL_Driver/Src/stm32wbxx_hal_dma.c **** 
 1567              		.loc 1 793 9 view .LVU592
 1568 006e 016C     		ldr	r1, [r0, #64]
 1569              	.LVL83:
 793:Drivers/STM32WBxx_HAL_Driver/Src/stm32wbxx_hal_dma.c **** 
 1570              		.loc 1 793 49 view .LVU593
 1571 0070 0223     		movs	r3, #2
 1572 0072 9340     		lsls	r3, r3, r2
 793:Drivers/STM32WBxx_HAL_Driver/Src/stm32wbxx_hal_dma.c **** 
 1573              		.loc 1 793 32 view .LVU594
 1574 0074 4B60     		str	r3, [r1, #4]
 796:Drivers/STM32WBxx_HAL_Driver/Src/stm32wbxx_hal_dma.c **** 
 1575              		.loc 1 796 5 is_stmt 1 view .LVU595
 796:Drivers/STM32WBxx_HAL_Driver/Src/stm32wbxx_hal_dma.c **** 
 1576              		.loc 1 796 5 view .LVU596
 1577 0076 0023     		movs	r3, #0
ARM GAS  C:\Users\Kevin\AppData\Local\Temp\ccg63WcD.s 			page 57


 1578 0078 80F82430 		strb	r3, [r0, #36]
 796:Drivers/STM32WBxx_HAL_Driver/Src/stm32wbxx_hal_dma.c **** 
 1579              		.loc 1 796 5 view .LVU597
 798:Drivers/STM32WBxx_HAL_Driver/Src/stm32wbxx_hal_dma.c ****     {
 1580              		.loc 1 798 5 view .LVU598
 798:Drivers/STM32WBxx_HAL_Driver/Src/stm32wbxx_hal_dma.c ****     {
 1581              		.loc 1 798 13 is_stmt 0 view .LVU599
 1582 007c C36A     		ldr	r3, [r0, #44]
 798:Drivers/STM32WBxx_HAL_Driver/Src/stm32wbxx_hal_dma.c ****     {
 1583              		.loc 1 798 8 view .LVU600
 1584 007e 002B     		cmp	r3, #0
 1585 0080 DFD0     		beq	.L89
 801:Drivers/STM32WBxx_HAL_Driver/Src/stm32wbxx_hal_dma.c ****     }
 1586              		.loc 1 801 7 is_stmt 1 view .LVU601
 1587 0082 9847     		blx	r3
 1588              	.LVL84:
 801:Drivers/STM32WBxx_HAL_Driver/Src/stm32wbxx_hal_dma.c ****     }
 1589              		.loc 1 801 7 is_stmt 0 view .LVU602
 1590 0084 DDE7     		b	.L89
 1591              	.LVL85:
 1592              	.L93:
 806:Drivers/STM32WBxx_HAL_Driver/Src/stm32wbxx_hal_dma.c ****   {
 1593              		.loc 1 806 8 is_stmt 1 view .LVU603
 806:Drivers/STM32WBxx_HAL_Driver/Src/stm32wbxx_hal_dma.c ****   {
 1594              		.loc 1 806 38 is_stmt 0 view .LVU604
 1595 0086 0822     		movs	r2, #8
 1596 0088 02FA03F3 		lsl	r3, r2, r3
 806:Drivers/STM32WBxx_HAL_Driver/Src/stm32wbxx_hal_dma.c ****   {
 1597              		.loc 1 806 11 view .LVU605
 1598 008c 0B42     		tst	r3, r1
 1599 008e D8D0     		beq	.L89
 806:Drivers/STM32WBxx_HAL_Driver/Src/stm32wbxx_hal_dma.c ****   {
 1600              		.loc 1 806 79 discriminator 1 view .LVU606
 1601 0090 15F0080F 		tst	r5, #8
 1602 0094 D5D0     		beq	.L89
 811:Drivers/STM32WBxx_HAL_Driver/Src/stm32wbxx_hal_dma.c **** 
 1603              		.loc 1 811 5 is_stmt 1 view .LVU607
 1604 0096 2368     		ldr	r3, [r4]
 1605 0098 23F00E03 		bic	r3, r3, #14
 1606 009c 2360     		str	r3, [r4]
 814:Drivers/STM32WBxx_HAL_Driver/Src/stm32wbxx_hal_dma.c **** 
 1607              		.loc 1 814 5 view .LVU608
 814:Drivers/STM32WBxx_HAL_Driver/Src/stm32wbxx_hal_dma.c **** 
 1608              		.loc 1 814 56 is_stmt 0 view .LVU609
 1609 009e 436C     		ldr	r3, [r0, #68]
 814:Drivers/STM32WBxx_HAL_Driver/Src/stm32wbxx_hal_dma.c **** 
 1610              		.loc 1 814 71 view .LVU610
 1611 00a0 03F01C03 		and	r3, r3, #28
 814:Drivers/STM32WBxx_HAL_Driver/Src/stm32wbxx_hal_dma.c **** 
 1612              		.loc 1 814 9 view .LVU611
 1613 00a4 016C     		ldr	r1, [r0, #64]
 1614              	.LVL86:
 814:Drivers/STM32WBxx_HAL_Driver/Src/stm32wbxx_hal_dma.c **** 
 1615              		.loc 1 814 48 view .LVU612
 1616 00a6 0122     		movs	r2, #1
 1617 00a8 02FA03F3 		lsl	r3, r2, r3
 814:Drivers/STM32WBxx_HAL_Driver/Src/stm32wbxx_hal_dma.c **** 
ARM GAS  C:\Users\Kevin\AppData\Local\Temp\ccg63WcD.s 			page 58


 1618              		.loc 1 814 32 view .LVU613
 1619 00ac 4B60     		str	r3, [r1, #4]
 817:Drivers/STM32WBxx_HAL_Driver/Src/stm32wbxx_hal_dma.c **** 
 1620              		.loc 1 817 5 is_stmt 1 view .LVU614
 817:Drivers/STM32WBxx_HAL_Driver/Src/stm32wbxx_hal_dma.c **** 
 1621              		.loc 1 817 21 is_stmt 0 view .LVU615
 1622 00ae C263     		str	r2, [r0, #60]
 820:Drivers/STM32WBxx_HAL_Driver/Src/stm32wbxx_hal_dma.c **** 
 1623              		.loc 1 820 5 is_stmt 1 view .LVU616
 820:Drivers/STM32WBxx_HAL_Driver/Src/stm32wbxx_hal_dma.c **** 
 1624              		.loc 1 820 17 is_stmt 0 view .LVU617
 1625 00b0 80F82520 		strb	r2, [r0, #37]
 823:Drivers/STM32WBxx_HAL_Driver/Src/stm32wbxx_hal_dma.c **** 
 1626              		.loc 1 823 5 is_stmt 1 view .LVU618
 823:Drivers/STM32WBxx_HAL_Driver/Src/stm32wbxx_hal_dma.c **** 
 1627              		.loc 1 823 5 view .LVU619
 1628 00b4 0023     		movs	r3, #0
 1629 00b6 80F82430 		strb	r3, [r0, #36]
 823:Drivers/STM32WBxx_HAL_Driver/Src/stm32wbxx_hal_dma.c **** 
 1630              		.loc 1 823 5 view .LVU620
 825:Drivers/STM32WBxx_HAL_Driver/Src/stm32wbxx_hal_dma.c ****     {
 1631              		.loc 1 825 5 view .LVU621
 825:Drivers/STM32WBxx_HAL_Driver/Src/stm32wbxx_hal_dma.c ****     {
 1632              		.loc 1 825 13 is_stmt 0 view .LVU622
 1633 00ba 436B     		ldr	r3, [r0, #52]
 825:Drivers/STM32WBxx_HAL_Driver/Src/stm32wbxx_hal_dma.c ****     {
 1634              		.loc 1 825 8 view .LVU623
 1635 00bc 002B     		cmp	r3, #0
 1636 00be C0D0     		beq	.L89
 828:Drivers/STM32WBxx_HAL_Driver/Src/stm32wbxx_hal_dma.c ****     }
 1637              		.loc 1 828 7 is_stmt 1 view .LVU624
 1638 00c0 9847     		blx	r3
 1639              	.LVL87:
 834:Drivers/STM32WBxx_HAL_Driver/Src/stm32wbxx_hal_dma.c ****   return;
 1640              		.loc 1 834 3 view .LVU625
 835:Drivers/STM32WBxx_HAL_Driver/Src/stm32wbxx_hal_dma.c **** }
 1641              		.loc 1 835 3 view .LVU626
 1642 00c2 BEE7     		b	.L89
 1643              		.cfi_endproc
 1644              	.LFE957:
 1646              		.section	.text.HAL_DMA_RegisterCallback,"ax",%progbits
 1647              		.align	1
 1648              		.global	HAL_DMA_RegisterCallback
 1649              		.syntax unified
 1650              		.thumb
 1651              		.thumb_func
 1653              	HAL_DMA_RegisterCallback:
 1654              	.LVL88:
 1655              	.LFB958:
 849:Drivers/STM32WBxx_HAL_Driver/Src/stm32wbxx_hal_dma.c ****   HAL_StatusTypeDef status = HAL_OK;
 1656              		.loc 1 849 1 view -0
 1657              		.cfi_startproc
 1658              		@ args = 0, pretend = 0, frame = 0
 1659              		@ frame_needed = 0, uses_anonymous_args = 0
 1660              		@ link register save eliminated.
 849:Drivers/STM32WBxx_HAL_Driver/Src/stm32wbxx_hal_dma.c ****   HAL_StatusTypeDef status = HAL_OK;
 1661              		.loc 1 849 1 is_stmt 0 view .LVU628
ARM GAS  C:\Users\Kevin\AppData\Local\Temp\ccg63WcD.s 			page 59


 1662 0000 0346     		mov	r3, r0
 850:Drivers/STM32WBxx_HAL_Driver/Src/stm32wbxx_hal_dma.c **** 
 1663              		.loc 1 850 3 is_stmt 1 view .LVU629
 1664              	.LVL89:
 853:Drivers/STM32WBxx_HAL_Driver/Src/stm32wbxx_hal_dma.c **** 
 1665              		.loc 1 853 3 view .LVU630
 853:Drivers/STM32WBxx_HAL_Driver/Src/stm32wbxx_hal_dma.c **** 
 1666              		.loc 1 853 3 view .LVU631
 1667 0002 90F82400 		ldrb	r0, [r0, #36]	@ zero_extendqisi2
 1668              	.LVL90:
 853:Drivers/STM32WBxx_HAL_Driver/Src/stm32wbxx_hal_dma.c **** 
 1669              		.loc 1 853 3 is_stmt 0 view .LVU632
 1670 0006 0128     		cmp	r0, #1
 1671 0008 1ED0     		beq	.L104
 853:Drivers/STM32WBxx_HAL_Driver/Src/stm32wbxx_hal_dma.c **** 
 1672              		.loc 1 853 3 is_stmt 1 discriminator 2 view .LVU633
 1673 000a 0120     		movs	r0, #1
 1674 000c 83F82400 		strb	r0, [r3, #36]
 853:Drivers/STM32WBxx_HAL_Driver/Src/stm32wbxx_hal_dma.c **** 
 1675              		.loc 1 853 3 discriminator 2 view .LVU634
 855:Drivers/STM32WBxx_HAL_Driver/Src/stm32wbxx_hal_dma.c ****   {
 1676              		.loc 1 855 3 discriminator 2 view .LVU635
 855:Drivers/STM32WBxx_HAL_Driver/Src/stm32wbxx_hal_dma.c ****   {
 1677              		.loc 1 855 34 is_stmt 0 discriminator 2 view .LVU636
 1678 0010 93F82500 		ldrb	r0, [r3, #37]	@ zero_extendqisi2
 1679 0014 C0B2     		uxtb	r0, r0
 855:Drivers/STM32WBxx_HAL_Driver/Src/stm32wbxx_hal_dma.c ****   {
 1680              		.loc 1 855 6 discriminator 2 view .LVU637
 1681 0016 0128     		cmp	r0, #1
 1682 0018 04D0     		beq	.L107
 882:Drivers/STM32WBxx_HAL_Driver/Src/stm32wbxx_hal_dma.c ****   }
 1683              		.loc 1 882 12 view .LVU638
 1684 001a 0120     		movs	r0, #1
 1685              	.L98:
 1686              	.LVL91:
 886:Drivers/STM32WBxx_HAL_Driver/Src/stm32wbxx_hal_dma.c **** 
 1687              		.loc 1 886 3 is_stmt 1 view .LVU639
 886:Drivers/STM32WBxx_HAL_Driver/Src/stm32wbxx_hal_dma.c **** 
 1688              		.loc 1 886 3 view .LVU640
 1689 001c 0022     		movs	r2, #0
 1690              	.LVL92:
 886:Drivers/STM32WBxx_HAL_Driver/Src/stm32wbxx_hal_dma.c **** 
 1691              		.loc 1 886 3 is_stmt 0 view .LVU641
 1692 001e 83F82420 		strb	r2, [r3, #36]
 886:Drivers/STM32WBxx_HAL_Driver/Src/stm32wbxx_hal_dma.c **** 
 1693              		.loc 1 886 3 is_stmt 1 view .LVU642
 888:Drivers/STM32WBxx_HAL_Driver/Src/stm32wbxx_hal_dma.c **** }
 1694              		.loc 1 888 3 view .LVU643
 888:Drivers/STM32WBxx_HAL_Driver/Src/stm32wbxx_hal_dma.c **** }
 1695              		.loc 1 888 10 is_stmt 0 view .LVU644
 1696 0022 7047     		bx	lr
 1697              	.LVL93:
 1698              	.L107:
 857:Drivers/STM32WBxx_HAL_Driver/Src/stm32wbxx_hal_dma.c ****     {
 1699              		.loc 1 857 5 is_stmt 1 view .LVU645
 1700 0024 0329     		cmp	r1, #3
 1701 0026 F9D8     		bhi	.L98
ARM GAS  C:\Users\Kevin\AppData\Local\Temp\ccg63WcD.s 			page 60


 1702 0028 DFE801F0 		tbb	[pc, r1]
 1703              	.L100:
 1704 002c 02       		.byte	(.L103-.L100)/2
 1705 002d 05       		.byte	(.L102-.L100)/2
 1706 002e 08       		.byte	(.L101-.L100)/2
 1707 002f 0B       		.byte	(.L99-.L100)/2
 1708              		.p2align 1
 1709              	.L103:
 860:Drivers/STM32WBxx_HAL_Driver/Src/stm32wbxx_hal_dma.c ****         break;
 1710              		.loc 1 860 9 view .LVU646
 860:Drivers/STM32WBxx_HAL_Driver/Src/stm32wbxx_hal_dma.c ****         break;
 1711              		.loc 1 860 32 is_stmt 0 view .LVU647
 1712 0030 DA62     		str	r2, [r3, #44]
 861:Drivers/STM32WBxx_HAL_Driver/Src/stm32wbxx_hal_dma.c **** 
 1713              		.loc 1 861 9 is_stmt 1 view .LVU648
 850:Drivers/STM32WBxx_HAL_Driver/Src/stm32wbxx_hal_dma.c **** 
 1714              		.loc 1 850 21 is_stmt 0 view .LVU649
 1715 0032 0846     		mov	r0, r1
 861:Drivers/STM32WBxx_HAL_Driver/Src/stm32wbxx_hal_dma.c **** 
 1716              		.loc 1 861 9 view .LVU650
 1717 0034 F2E7     		b	.L98
 1718              	.L102:
 864:Drivers/STM32WBxx_HAL_Driver/Src/stm32wbxx_hal_dma.c ****         break;
 1719              		.loc 1 864 9 is_stmt 1 view .LVU651
 864:Drivers/STM32WBxx_HAL_Driver/Src/stm32wbxx_hal_dma.c ****         break;
 1720              		.loc 1 864 36 is_stmt 0 view .LVU652
 1721 0036 1A63     		str	r2, [r3, #48]
 865:Drivers/STM32WBxx_HAL_Driver/Src/stm32wbxx_hal_dma.c **** 
 1722              		.loc 1 865 9 is_stmt 1 view .LVU653
 850:Drivers/STM32WBxx_HAL_Driver/Src/stm32wbxx_hal_dma.c **** 
 1723              		.loc 1 850 21 is_stmt 0 view .LVU654
 1724 0038 0020     		movs	r0, #0
 865:Drivers/STM32WBxx_HAL_Driver/Src/stm32wbxx_hal_dma.c **** 
 1725              		.loc 1 865 9 view .LVU655
 1726 003a EFE7     		b	.L98
 1727              	.L101:
 868:Drivers/STM32WBxx_HAL_Driver/Src/stm32wbxx_hal_dma.c ****         break;
 1728              		.loc 1 868 9 is_stmt 1 view .LVU656
 868:Drivers/STM32WBxx_HAL_Driver/Src/stm32wbxx_hal_dma.c ****         break;
 1729              		.loc 1 868 33 is_stmt 0 view .LVU657
 1730 003c 5A63     		str	r2, [r3, #52]
 869:Drivers/STM32WBxx_HAL_Driver/Src/stm32wbxx_hal_dma.c **** 
 1731              		.loc 1 869 9 is_stmt 1 view .LVU658
 850:Drivers/STM32WBxx_HAL_Driver/Src/stm32wbxx_hal_dma.c **** 
 1732              		.loc 1 850 21 is_stmt 0 view .LVU659
 1733 003e 0020     		movs	r0, #0
 869:Drivers/STM32WBxx_HAL_Driver/Src/stm32wbxx_hal_dma.c **** 
 1734              		.loc 1 869 9 view .LVU660
 1735 0040 ECE7     		b	.L98
 1736              	.L99:
 872:Drivers/STM32WBxx_HAL_Driver/Src/stm32wbxx_hal_dma.c ****         break;
 1737              		.loc 1 872 9 is_stmt 1 view .LVU661
 872:Drivers/STM32WBxx_HAL_Driver/Src/stm32wbxx_hal_dma.c ****         break;
 1738              		.loc 1 872 33 is_stmt 0 view .LVU662
 1739 0042 9A63     		str	r2, [r3, #56]
 873:Drivers/STM32WBxx_HAL_Driver/Src/stm32wbxx_hal_dma.c **** 
 1740              		.loc 1 873 9 is_stmt 1 view .LVU663
ARM GAS  C:\Users\Kevin\AppData\Local\Temp\ccg63WcD.s 			page 61


 850:Drivers/STM32WBxx_HAL_Driver/Src/stm32wbxx_hal_dma.c **** 
 1741              		.loc 1 850 21 is_stmt 0 view .LVU664
 1742 0044 0020     		movs	r0, #0
 873:Drivers/STM32WBxx_HAL_Driver/Src/stm32wbxx_hal_dma.c **** 
 1743              		.loc 1 873 9 view .LVU665
 1744 0046 E9E7     		b	.L98
 1745              	.L104:
 853:Drivers/STM32WBxx_HAL_Driver/Src/stm32wbxx_hal_dma.c **** 
 1746              		.loc 1 853 3 view .LVU666
 1747 0048 0220     		movs	r0, #2
 889:Drivers/STM32WBxx_HAL_Driver/Src/stm32wbxx_hal_dma.c **** 
 1748              		.loc 1 889 1 view .LVU667
 1749 004a 7047     		bx	lr
 1750              		.cfi_endproc
 1751              	.LFE958:
 1753              		.section	.text.HAL_DMA_UnRegisterCallback,"ax",%progbits
 1754              		.align	1
 1755              		.global	HAL_DMA_UnRegisterCallback
 1756              		.syntax unified
 1757              		.thumb
 1758              		.thumb_func
 1760              	HAL_DMA_UnRegisterCallback:
 1761              	.LVL94:
 1762              	.LFB959:
 900:Drivers/STM32WBxx_HAL_Driver/Src/stm32wbxx_hal_dma.c ****   HAL_StatusTypeDef status = HAL_OK;
 1763              		.loc 1 900 1 is_stmt 1 view -0
 1764              		.cfi_startproc
 1765              		@ args = 0, pretend = 0, frame = 0
 1766              		@ frame_needed = 0, uses_anonymous_args = 0
 1767              		@ link register save eliminated.
 900:Drivers/STM32WBxx_HAL_Driver/Src/stm32wbxx_hal_dma.c ****   HAL_StatusTypeDef status = HAL_OK;
 1768              		.loc 1 900 1 is_stmt 0 view .LVU669
 1769 0000 0346     		mov	r3, r0
 901:Drivers/STM32WBxx_HAL_Driver/Src/stm32wbxx_hal_dma.c **** 
 1770              		.loc 1 901 3 is_stmt 1 view .LVU670
 1771              	.LVL95:
 904:Drivers/STM32WBxx_HAL_Driver/Src/stm32wbxx_hal_dma.c **** 
 1772              		.loc 1 904 3 view .LVU671
 904:Drivers/STM32WBxx_HAL_Driver/Src/stm32wbxx_hal_dma.c **** 
 1773              		.loc 1 904 3 view .LVU672
 1774 0002 90F82420 		ldrb	r2, [r0, #36]	@ zero_extendqisi2
 1775 0006 012A     		cmp	r2, #1
 1776 0008 26D0     		beq	.L117
 904:Drivers/STM32WBxx_HAL_Driver/Src/stm32wbxx_hal_dma.c **** 
 1777              		.loc 1 904 3 discriminator 2 view .LVU673
 1778 000a 0122     		movs	r2, #1
 1779 000c 80F82420 		strb	r2, [r0, #36]
 904:Drivers/STM32WBxx_HAL_Driver/Src/stm32wbxx_hal_dma.c **** 
 1780              		.loc 1 904 3 discriminator 2 view .LVU674
 906:Drivers/STM32WBxx_HAL_Driver/Src/stm32wbxx_hal_dma.c ****   {
 1781              		.loc 1 906 3 discriminator 2 view .LVU675
 906:Drivers/STM32WBxx_HAL_Driver/Src/stm32wbxx_hal_dma.c ****   {
 1782              		.loc 1 906 34 is_stmt 0 discriminator 2 view .LVU676
 1783 0010 90F82500 		ldrb	r0, [r0, #37]	@ zero_extendqisi2
 1784              	.LVL96:
 906:Drivers/STM32WBxx_HAL_Driver/Src/stm32wbxx_hal_dma.c ****   {
 1785              		.loc 1 906 34 discriminator 2 view .LVU677
ARM GAS  C:\Users\Kevin\AppData\Local\Temp\ccg63WcD.s 			page 62


 1786 0014 C0B2     		uxtb	r0, r0
 906:Drivers/STM32WBxx_HAL_Driver/Src/stm32wbxx_hal_dma.c ****   {
 1787              		.loc 1 906 6 discriminator 2 view .LVU678
 1788 0016 9042     		cmp	r0, r2
 1789 0018 04D0     		beq	.L120
 940:Drivers/STM32WBxx_HAL_Driver/Src/stm32wbxx_hal_dma.c ****   }
 1790              		.loc 1 940 12 view .LVU679
 1791 001a 0120     		movs	r0, #1
 1792              	.L110:
 1793              	.LVL97:
 944:Drivers/STM32WBxx_HAL_Driver/Src/stm32wbxx_hal_dma.c **** 
 1794              		.loc 1 944 3 is_stmt 1 view .LVU680
 944:Drivers/STM32WBxx_HAL_Driver/Src/stm32wbxx_hal_dma.c **** 
 1795              		.loc 1 944 3 view .LVU681
 1796 001c 0022     		movs	r2, #0
 1797 001e 83F82420 		strb	r2, [r3, #36]
 944:Drivers/STM32WBxx_HAL_Driver/Src/stm32wbxx_hal_dma.c **** 
 1798              		.loc 1 944 3 view .LVU682
 946:Drivers/STM32WBxx_HAL_Driver/Src/stm32wbxx_hal_dma.c **** }
 1799              		.loc 1 946 3 view .LVU683
 946:Drivers/STM32WBxx_HAL_Driver/Src/stm32wbxx_hal_dma.c **** }
 1800              		.loc 1 946 10 is_stmt 0 view .LVU684
 1801 0022 7047     		bx	lr
 1802              	.LVL98:
 1803              	.L120:
 908:Drivers/STM32WBxx_HAL_Driver/Src/stm32wbxx_hal_dma.c ****     {
 1804              		.loc 1 908 5 is_stmt 1 view .LVU685
 1805 0024 0429     		cmp	r1, #4
 1806 0026 F9D8     		bhi	.L110
 1807 0028 DFE801F0 		tbb	[pc, r1]
 1808              	.L112:
 1809 002c 03       		.byte	(.L116-.L112)/2
 1810 002d 07       		.byte	(.L115-.L112)/2
 1811 002e 0A       		.byte	(.L114-.L112)/2
 1812 002f 0D       		.byte	(.L113-.L112)/2
 1813 0030 10       		.byte	(.L111-.L112)/2
 1814 0031 00       		.p2align 1
 1815              	.L116:
 911:Drivers/STM32WBxx_HAL_Driver/Src/stm32wbxx_hal_dma.c ****         break;
 1816              		.loc 1 911 9 view .LVU686
 911:Drivers/STM32WBxx_HAL_Driver/Src/stm32wbxx_hal_dma.c ****         break;
 1817              		.loc 1 911 32 is_stmt 0 view .LVU687
 1818 0032 0022     		movs	r2, #0
 1819 0034 DA62     		str	r2, [r3, #44]
 912:Drivers/STM32WBxx_HAL_Driver/Src/stm32wbxx_hal_dma.c **** 
 1820              		.loc 1 912 9 is_stmt 1 view .LVU688
 901:Drivers/STM32WBxx_HAL_Driver/Src/stm32wbxx_hal_dma.c **** 
 1821              		.loc 1 901 21 is_stmt 0 view .LVU689
 1822 0036 0846     		mov	r0, r1
 912:Drivers/STM32WBxx_HAL_Driver/Src/stm32wbxx_hal_dma.c **** 
 1823              		.loc 1 912 9 view .LVU690
 1824 0038 F0E7     		b	.L110
 1825              	.L115:
 915:Drivers/STM32WBxx_HAL_Driver/Src/stm32wbxx_hal_dma.c ****         break;
 1826              		.loc 1 915 9 is_stmt 1 view .LVU691
 915:Drivers/STM32WBxx_HAL_Driver/Src/stm32wbxx_hal_dma.c ****         break;
 1827              		.loc 1 915 36 is_stmt 0 view .LVU692
ARM GAS  C:\Users\Kevin\AppData\Local\Temp\ccg63WcD.s 			page 63


 1828 003a 0020     		movs	r0, #0
 1829 003c 1863     		str	r0, [r3, #48]
 916:Drivers/STM32WBxx_HAL_Driver/Src/stm32wbxx_hal_dma.c **** 
 1830              		.loc 1 916 9 is_stmt 1 view .LVU693
 1831 003e EDE7     		b	.L110
 1832              	.L114:
 919:Drivers/STM32WBxx_HAL_Driver/Src/stm32wbxx_hal_dma.c ****         break;
 1833              		.loc 1 919 9 view .LVU694
 919:Drivers/STM32WBxx_HAL_Driver/Src/stm32wbxx_hal_dma.c ****         break;
 1834              		.loc 1 919 33 is_stmt 0 view .LVU695
 1835 0040 0020     		movs	r0, #0
 1836 0042 5863     		str	r0, [r3, #52]
 920:Drivers/STM32WBxx_HAL_Driver/Src/stm32wbxx_hal_dma.c **** 
 1837              		.loc 1 920 9 is_stmt 1 view .LVU696
 1838 0044 EAE7     		b	.L110
 1839              	.L113:
 923:Drivers/STM32WBxx_HAL_Driver/Src/stm32wbxx_hal_dma.c ****         break;
 1840              		.loc 1 923 9 view .LVU697
 923:Drivers/STM32WBxx_HAL_Driver/Src/stm32wbxx_hal_dma.c ****         break;
 1841              		.loc 1 923 33 is_stmt 0 view .LVU698
 1842 0046 0020     		movs	r0, #0
 1843 0048 9863     		str	r0, [r3, #56]
 924:Drivers/STM32WBxx_HAL_Driver/Src/stm32wbxx_hal_dma.c **** 
 1844              		.loc 1 924 9 is_stmt 1 view .LVU699
 1845 004a E7E7     		b	.L110
 1846              	.L111:
 927:Drivers/STM32WBxx_HAL_Driver/Src/stm32wbxx_hal_dma.c ****         hdma->XferHalfCpltCallback = NULL;
 1847              		.loc 1 927 9 view .LVU700
 927:Drivers/STM32WBxx_HAL_Driver/Src/stm32wbxx_hal_dma.c ****         hdma->XferHalfCpltCallback = NULL;
 1848              		.loc 1 927 32 is_stmt 0 view .LVU701
 1849 004c 0020     		movs	r0, #0
 1850 004e D862     		str	r0, [r3, #44]
 928:Drivers/STM32WBxx_HAL_Driver/Src/stm32wbxx_hal_dma.c ****         hdma->XferErrorCallback = NULL;
 1851              		.loc 1 928 9 is_stmt 1 view .LVU702
 928:Drivers/STM32WBxx_HAL_Driver/Src/stm32wbxx_hal_dma.c ****         hdma->XferErrorCallback = NULL;
 1852              		.loc 1 928 36 is_stmt 0 view .LVU703
 1853 0050 1863     		str	r0, [r3, #48]
 929:Drivers/STM32WBxx_HAL_Driver/Src/stm32wbxx_hal_dma.c ****         hdma->XferAbortCallback = NULL;
 1854              		.loc 1 929 9 is_stmt 1 view .LVU704
 929:Drivers/STM32WBxx_HAL_Driver/Src/stm32wbxx_hal_dma.c ****         hdma->XferAbortCallback = NULL;
 1855              		.loc 1 929 33 is_stmt 0 view .LVU705
 1856 0052 5863     		str	r0, [r3, #52]
 930:Drivers/STM32WBxx_HAL_Driver/Src/stm32wbxx_hal_dma.c ****         break;
 1857              		.loc 1 930 9 is_stmt 1 view .LVU706
 930:Drivers/STM32WBxx_HAL_Driver/Src/stm32wbxx_hal_dma.c ****         break;
 1858              		.loc 1 930 33 is_stmt 0 view .LVU707
 1859 0054 9863     		str	r0, [r3, #56]
 931:Drivers/STM32WBxx_HAL_Driver/Src/stm32wbxx_hal_dma.c **** 
 1860              		.loc 1 931 9 is_stmt 1 view .LVU708
 1861 0056 E1E7     		b	.L110
 1862              	.LVL99:
 1863              	.L117:
 904:Drivers/STM32WBxx_HAL_Driver/Src/stm32wbxx_hal_dma.c **** 
 1864              		.loc 1 904 3 is_stmt 0 view .LVU709
 1865 0058 0220     		movs	r0, #2
 1866              	.LVL100:
 947:Drivers/STM32WBxx_HAL_Driver/Src/stm32wbxx_hal_dma.c **** 
ARM GAS  C:\Users\Kevin\AppData\Local\Temp\ccg63WcD.s 			page 64


 1867              		.loc 1 947 1 view .LVU710
 1868 005a 7047     		bx	lr
 1869              		.cfi_endproc
 1870              	.LFE959:
 1872              		.section	.text.HAL_DMA_GetState,"ax",%progbits
 1873              		.align	1
 1874              		.global	HAL_DMA_GetState
 1875              		.syntax unified
 1876              		.thumb
 1877              		.thumb_func
 1879              	HAL_DMA_GetState:
 1880              	.LVL101:
 1881              	.LFB960:
 978:Drivers/STM32WBxx_HAL_Driver/Src/stm32wbxx_hal_dma.c ****   /* Return DMA handle state */
 1882              		.loc 1 978 1 is_stmt 1 view -0
 1883              		.cfi_startproc
 1884              		@ args = 0, pretend = 0, frame = 0
 1885              		@ frame_needed = 0, uses_anonymous_args = 0
 1886              		@ link register save eliminated.
 980:Drivers/STM32WBxx_HAL_Driver/Src/stm32wbxx_hal_dma.c **** }
 1887              		.loc 1 980 3 view .LVU712
 980:Drivers/STM32WBxx_HAL_Driver/Src/stm32wbxx_hal_dma.c **** }
 1888              		.loc 1 980 14 is_stmt 0 view .LVU713
 1889 0000 90F82500 		ldrb	r0, [r0, #37]	@ zero_extendqisi2
 1890              	.LVL102:
 981:Drivers/STM32WBxx_HAL_Driver/Src/stm32wbxx_hal_dma.c **** 
 1891              		.loc 1 981 1 view .LVU714
 1892 0004 7047     		bx	lr
 1893              		.cfi_endproc
 1894              	.LFE960:
 1896              		.section	.text.HAL_DMA_GetError,"ax",%progbits
 1897              		.align	1
 1898              		.global	HAL_DMA_GetError
 1899              		.syntax unified
 1900              		.thumb
 1901              		.thumb_func
 1903              	HAL_DMA_GetError:
 1904              	.LVL103:
 1905              	.LFB961:
 990:Drivers/STM32WBxx_HAL_Driver/Src/stm32wbxx_hal_dma.c ****   return hdma->ErrorCode;
 1906              		.loc 1 990 1 is_stmt 1 view -0
 1907              		.cfi_startproc
 1908              		@ args = 0, pretend = 0, frame = 0
 1909              		@ frame_needed = 0, uses_anonymous_args = 0
 1910              		@ link register save eliminated.
 991:Drivers/STM32WBxx_HAL_Driver/Src/stm32wbxx_hal_dma.c **** }
 1911              		.loc 1 991 3 view .LVU716
 991:Drivers/STM32WBxx_HAL_Driver/Src/stm32wbxx_hal_dma.c **** }
 1912              		.loc 1 991 14 is_stmt 0 view .LVU717
 1913 0000 C06B     		ldr	r0, [r0, #60]
 1914              	.LVL104:
 992:Drivers/STM32WBxx_HAL_Driver/Src/stm32wbxx_hal_dma.c **** 
 1915              		.loc 1 992 1 view .LVU718
 1916 0002 7047     		bx	lr
 1917              		.cfi_endproc
 1918              	.LFE961:
 1920              		.text
ARM GAS  C:\Users\Kevin\AppData\Local\Temp\ccg63WcD.s 			page 65


 1921              	.Letext0:
 1922              		.file 2 "c:\\users\\kevin\\appdata\\roaming\\code\\user\\globalstorage\\bmd.stm32-for-vscode\\@xpa
 1923              		.file 3 "c:\\users\\kevin\\appdata\\roaming\\code\\user\\globalstorage\\bmd.stm32-for-vscode\\@xpa
 1924              		.file 4 "Drivers/CMSIS/Device/ST/STM32WBxx/Include/stm32wb55xx.h"
 1925              		.file 5 "Drivers/STM32WBxx_HAL_Driver/Inc/stm32wbxx_hal_def.h"
 1926              		.file 6 "Drivers/STM32WBxx_HAL_Driver/Inc/stm32wbxx_hal_dma.h"
 1927              		.file 7 "Drivers/STM32WBxx_HAL_Driver/Inc/stm32wbxx_hal.h"
ARM GAS  C:\Users\Kevin\AppData\Local\Temp\ccg63WcD.s 			page 66


DEFINED SYMBOLS
                            *ABS*:0000000000000000 stm32wbxx_hal_dma.c
C:\Users\Kevin\AppData\Local\Temp\ccg63WcD.s:21     .text.DMA_SetConfig:0000000000000000 $t
C:\Users\Kevin\AppData\Local\Temp\ccg63WcD.s:26     .text.DMA_SetConfig:0000000000000000 DMA_SetConfig
C:\Users\Kevin\AppData\Local\Temp\ccg63WcD.s:118    .text.DMA_CalcDMAMUXChannelBaseAndMask:0000000000000000 $t
C:\Users\Kevin\AppData\Local\Temp\ccg63WcD.s:123    .text.DMA_CalcDMAMUXChannelBaseAndMask:0000000000000000 DMA_CalcDMAMUXChannelBaseAndMask
C:\Users\Kevin\AppData\Local\Temp\ccg63WcD.s:188    .text.DMA_CalcDMAMUXChannelBaseAndMask:0000000000000044 $d
C:\Users\Kevin\AppData\Local\Temp\ccg63WcD.s:196    .text.DMA_CalcDMAMUXRequestGenBaseAndMask:0000000000000000 $t
C:\Users\Kevin\AppData\Local\Temp\ccg63WcD.s:201    .text.DMA_CalcDMAMUXRequestGenBaseAndMask:0000000000000000 DMA_CalcDMAMUXRequestGenBaseAndMask
C:\Users\Kevin\AppData\Local\Temp\ccg63WcD.s:243    .text.DMA_CalcDMAMUXRequestGenBaseAndMask:0000000000000024 $d
C:\Users\Kevin\AppData\Local\Temp\ccg63WcD.s:249    .text.HAL_DMA_Init:0000000000000000 $t
C:\Users\Kevin\AppData\Local\Temp\ccg63WcD.s:255    .text.HAL_DMA_Init:0000000000000000 HAL_DMA_Init
C:\Users\Kevin\AppData\Local\Temp\ccg63WcD.s:473    .text.HAL_DMA_Init:00000000000000c4 $d
C:\Users\Kevin\AppData\Local\Temp\ccg63WcD.s:483    .text.HAL_DMA_DeInit:0000000000000000 $t
C:\Users\Kevin\AppData\Local\Temp\ccg63WcD.s:489    .text.HAL_DMA_DeInit:0000000000000000 HAL_DMA_DeInit
C:\Users\Kevin\AppData\Local\Temp\ccg63WcD.s:669    .text.HAL_DMA_DeInit:00000000000000a0 $d
C:\Users\Kevin\AppData\Local\Temp\ccg63WcD.s:679    .text.HAL_DMA_Start:0000000000000000 $t
C:\Users\Kevin\AppData\Local\Temp\ccg63WcD.s:685    .text.HAL_DMA_Start:0000000000000000 HAL_DMA_Start
C:\Users\Kevin\AppData\Local\Temp\ccg63WcD.s:772    .text.HAL_DMA_Start_IT:0000000000000000 $t
C:\Users\Kevin\AppData\Local\Temp\ccg63WcD.s:778    .text.HAL_DMA_Start_IT:0000000000000000 HAL_DMA_Start_IT
C:\Users\Kevin\AppData\Local\Temp\ccg63WcD.s:915    .text.HAL_DMA_Abort:0000000000000000 $t
C:\Users\Kevin\AppData\Local\Temp\ccg63WcD.s:921    .text.HAL_DMA_Abort:0000000000000000 HAL_DMA_Abort
C:\Users\Kevin\AppData\Local\Temp\ccg63WcD.s:1038   .text.HAL_DMA_Abort_IT:0000000000000000 $t
C:\Users\Kevin\AppData\Local\Temp\ccg63WcD.s:1044   .text.HAL_DMA_Abort_IT:0000000000000000 HAL_DMA_Abort_IT
C:\Users\Kevin\AppData\Local\Temp\ccg63WcD.s:1167   .text.HAL_DMA_PollForTransfer:0000000000000000 $t
C:\Users\Kevin\AppData\Local\Temp\ccg63WcD.s:1173   .text.HAL_DMA_PollForTransfer:0000000000000000 HAL_DMA_PollForTransfer
C:\Users\Kevin\AppData\Local\Temp\ccg63WcD.s:1454   .text.HAL_DMA_IRQHandler:0000000000000000 $t
C:\Users\Kevin\AppData\Local\Temp\ccg63WcD.s:1460   .text.HAL_DMA_IRQHandler:0000000000000000 HAL_DMA_IRQHandler
C:\Users\Kevin\AppData\Local\Temp\ccg63WcD.s:1647   .text.HAL_DMA_RegisterCallback:0000000000000000 $t
C:\Users\Kevin\AppData\Local\Temp\ccg63WcD.s:1653   .text.HAL_DMA_RegisterCallback:0000000000000000 HAL_DMA_RegisterCallback
C:\Users\Kevin\AppData\Local\Temp\ccg63WcD.s:1704   .text.HAL_DMA_RegisterCallback:000000000000002c $d
C:\Users\Kevin\AppData\Local\Temp\ccg63WcD.s:1708   .text.HAL_DMA_RegisterCallback:0000000000000030 $t
C:\Users\Kevin\AppData\Local\Temp\ccg63WcD.s:1754   .text.HAL_DMA_UnRegisterCallback:0000000000000000 $t
C:\Users\Kevin\AppData\Local\Temp\ccg63WcD.s:1760   .text.HAL_DMA_UnRegisterCallback:0000000000000000 HAL_DMA_UnRegisterCallback
C:\Users\Kevin\AppData\Local\Temp\ccg63WcD.s:1809   .text.HAL_DMA_UnRegisterCallback:000000000000002c $d
C:\Users\Kevin\AppData\Local\Temp\ccg63WcD.s:1873   .text.HAL_DMA_GetState:0000000000000000 $t
C:\Users\Kevin\AppData\Local\Temp\ccg63WcD.s:1879   .text.HAL_DMA_GetState:0000000000000000 HAL_DMA_GetState
C:\Users\Kevin\AppData\Local\Temp\ccg63WcD.s:1897   .text.HAL_DMA_GetError:0000000000000000 $t
C:\Users\Kevin\AppData\Local\Temp\ccg63WcD.s:1903   .text.HAL_DMA_GetError:0000000000000000 HAL_DMA_GetError
C:\Users\Kevin\AppData\Local\Temp\ccg63WcD.s:1814   .text.HAL_DMA_UnRegisterCallback:0000000000000031 $d
C:\Users\Kevin\AppData\Local\Temp\ccg63WcD.s:1814   .text.HAL_DMA_UnRegisterCallback:0000000000000032 $t

UNDEFINED SYMBOLS
HAL_GetTick
